ARM GAS  C:\Users\umber\AppData\Local\Temp\ccCnstrg.s 			page 1


   1              		.syntax unified
   2              		.cpu cortex-m3
   3              		.fpu softvfp
   4              		.eabi_attribute 20, 1
   5              		.eabi_attribute 21, 1
   6              		.eabi_attribute 23, 3
   7              		.eabi_attribute 24, 1
   8              		.eabi_attribute 25, 1
   9              		.eabi_attribute 26, 1
  10              		.eabi_attribute 30, 1
  11              		.eabi_attribute 34, 1
  12              		.eabi_attribute 18, 4
  13              		.thumb
  14              		.syntax unified
  15              		.file	"I2C_Interface.c"
  16              		.text
  17              	.Ltext0:
  18              		.cfi_sections	.debug_frame
  19              		.section	.text.I2C_Peripheral_Start,"ax",%progbits
  20              		.align	2
  21              		.global	I2C_Peripheral_Start
  22              		.thumb
  23              		.thumb_func
  24              		.type	I2C_Peripheral_Start, %function
  25              	I2C_Peripheral_Start:
  26              	.LFB64:
  27              		.file 1 "I2C_Interface.c"
   1:I2C_Interface.c **** /*
   2:I2C_Interface.c **** * This file includes all the required source code to interface
   3:I2C_Interface.c **** * the I2C peripheral.
   4:I2C_Interface.c **** *
   5:I2C_Interface.c **** * This file needs to be completed.
   6:I2C_Interface.c **** */
   7:I2C_Interface.c **** 
   8:I2C_Interface.c **** /**
   9:I2C_Interface.c **** *   \brief Value returned if device present on I2C bus.
  10:I2C_Interface.c **** */
  11:I2C_Interface.c **** #ifndef DEVICE_CONNECTED
  12:I2C_Interface.c ****     #define DEVICE_CONNECTED 1
  13:I2C_Interface.c **** #endif
  14:I2C_Interface.c **** 
  15:I2C_Interface.c **** /**
  16:I2C_Interface.c **** *   \brief Value returned if device not present on I2C bus.
  17:I2C_Interface.c **** */
  18:I2C_Interface.c **** #ifndef DEVICE_UNCONNECTED
  19:I2C_Interface.c ****     #define DEVICE_UNCONNECTED 0
  20:I2C_Interface.c **** #endif
  21:I2C_Interface.c **** 
  22:I2C_Interface.c **** #include "I2C_Interface.h" 
  23:I2C_Interface.c **** #include "I2C_Master.h"
  24:I2C_Interface.c **** #include "project.h"
  25:I2C_Interface.c **** #include "ErrorCodes.h"
  26:I2C_Interface.c **** #include "LIS3DH.h"
  27:I2C_Interface.c **** #include "stdio.h"
  28:I2C_Interface.c **** 
  29:I2C_Interface.c **** 
  30:I2C_Interface.c **** 
ARM GAS  C:\Users\umber\AppData\Local\Temp\ccCnstrg.s 			page 2


  31:I2C_Interface.c **** 
  32:I2C_Interface.c **** ErrorCode I2C_Peripheral_Start(void) 
  33:I2C_Interface.c **** {
  28              		.loc 1 33 0
  29              		.cfi_startproc
  30              		@ args = 0, pretend = 0, frame = 0
  31              		@ frame_needed = 0, uses_anonymous_args = 0
  32 0000 08B5     		push	{r3, lr}
  33              		.cfi_def_cfa_offset 8
  34              		.cfi_offset 3, -8
  35              		.cfi_offset 14, -4
  34:I2C_Interface.c ****     // Start I2C peripheral
  35:I2C_Interface.c ****     I2C_Master_Start();  
  36              		.loc 1 35 0
  37 0002 FFF7FEFF 		bl	I2C_Master_Start
  38              	.LVL0:
  36:I2C_Interface.c ****     
  37:I2C_Interface.c ****     // Return no error since start function does not return any error
  38:I2C_Interface.c ****     return NO_ERROR;
  39:I2C_Interface.c **** }
  39              		.loc 1 39 0
  40 0006 0020     		movs	r0, #0
  41 0008 08BD     		pop	{r3, pc}
  42              		.cfi_endproc
  43              	.LFE64:
  44              		.size	I2C_Peripheral_Start, .-I2C_Peripheral_Start
  45 000a 00BF     		.section	.text.I2C_Peripheral_Stop,"ax",%progbits
  46              		.align	2
  47              		.global	I2C_Peripheral_Stop
  48              		.thumb
  49              		.thumb_func
  50              		.type	I2C_Peripheral_Stop, %function
  51              	I2C_Peripheral_Stop:
  52              	.LFB65:
  40:I2C_Interface.c **** 
  41:I2C_Interface.c **** // --------------------------------------------------------------------------------- //
  42:I2C_Interface.c **** 
  43:I2C_Interface.c **** ErrorCode I2C_Peripheral_Stop(void)
  44:I2C_Interface.c **** {
  53              		.loc 1 44 0
  54              		.cfi_startproc
  55              		@ args = 0, pretend = 0, frame = 0
  56              		@ frame_needed = 0, uses_anonymous_args = 0
  57 0000 08B5     		push	{r3, lr}
  58              		.cfi_def_cfa_offset 8
  59              		.cfi_offset 3, -8
  60              		.cfi_offset 14, -4
  45:I2C_Interface.c ****     // Stop I2C peripheral
  46:I2C_Interface.c ****     I2C_Master_Stop();
  61              		.loc 1 46 0
  62 0002 FFF7FEFF 		bl	I2C_Master_Stop
  63              	.LVL1:
  47:I2C_Interface.c ****     // Return no error since stop function does not return any error
  48:I2C_Interface.c ****     return NO_ERROR;
  49:I2C_Interface.c **** }
  64              		.loc 1 49 0
  65 0006 0020     		movs	r0, #0
ARM GAS  C:\Users\umber\AppData\Local\Temp\ccCnstrg.s 			page 3


  66 0008 08BD     		pop	{r3, pc}
  67              		.cfi_endproc
  68              	.LFE65:
  69              		.size	I2C_Peripheral_Stop, .-I2C_Peripheral_Stop
  70 000a 00BF     		.section	.text.I2C_Peripheral_ReadRegister,"ax",%progbits
  71              		.align	2
  72              		.global	I2C_Peripheral_ReadRegister
  73              		.thumb
  74              		.thumb_func
  75              		.type	I2C_Peripheral_ReadRegister, %function
  76              	I2C_Peripheral_ReadRegister:
  77              	.LFB66:
  50:I2C_Interface.c **** 
  51:I2C_Interface.c **** // --------------------------------------------------------------------------------- //
  52:I2C_Interface.c **** 
  53:I2C_Interface.c **** ErrorCode I2C_Peripheral_ReadRegister(uint8_t device_address, 
  54:I2C_Interface.c ****                                       uint8_t register_address,
  55:I2C_Interface.c ****                                       uint8_t* data) {
  78              		.loc 1 55 0
  79              		.cfi_startproc
  80              		@ args = 0, pretend = 0, frame = 0
  81              		@ frame_needed = 0, uses_anonymous_args = 0
  82              	.LVL2:
  83 0000 F8B5     		push	{r3, r4, r5, r6, r7, lr}
  84              		.cfi_def_cfa_offset 24
  85              		.cfi_offset 3, -24
  86              		.cfi_offset 4, -20
  87              		.cfi_offset 5, -16
  88              		.cfi_offset 6, -12
  89              		.cfi_offset 7, -8
  90              		.cfi_offset 14, -4
  91 0002 0646     		mov	r6, r0
  92 0004 0D46     		mov	r5, r1
  93 0006 1746     		mov	r7, r2
  56:I2C_Interface.c ****     
  57:I2C_Interface.c ****     // Start Condition
  58:I2C_Interface.c ****     uint8_t error = I2C_Master_MasterSendStart(device_address, I2C_Master_WRITE_XFER_MODE);        
  94              		.loc 1 58 0
  95 0008 0021     		movs	r1, #0
  96              	.LVL3:
  97 000a FFF7FEFF 		bl	I2C_Master_MasterSendStart
  98              	.LVL4:
  59:I2C_Interface.c ****     if (error == I2C_Master_MSTR_NO_ERROR)
  99              		.loc 1 59 0
 100 000e 0446     		mov	r4, r0
 101 0010 68B9     		cbnz	r0, .L6
  60:I2C_Interface.c ****     {
  61:I2C_Interface.c ****         //Write the register address to be read
  62:I2C_Interface.c ****         error = I2C_Master_MasterWriteByte(register_address);
 102              		.loc 1 62 0
 103 0012 2846     		mov	r0, r5
 104              	.LVL5:
 105 0014 FFF7FEFF 		bl	I2C_Master_MasterWriteByte
 106              	.LVL6:
  63:I2C_Interface.c ****         if (error == I2C_Master_MSTR_NO_ERROR)
 107              		.loc 1 63 0
 108 0018 0446     		mov	r4, r0
ARM GAS  C:\Users\umber\AppData\Local\Temp\ccCnstrg.s 			page 4


 109 001a 40B9     		cbnz	r0, .L6
  64:I2C_Interface.c ****         {
  65:I2C_Interface.c ****             // Send a restart condition
  66:I2C_Interface.c ****             error = I2C_Master_MasterSendRestart(device_address, I2C_Master_READ_XFER_MODE);
 110              		.loc 1 66 0
 111 001c 0121     		movs	r1, #1
 112 001e 3046     		mov	r0, r6
 113              	.LVL7:
 114 0020 FFF7FEFF 		bl	I2C_Master_MasterSendRestart
 115              	.LVL8:
  67:I2C_Interface.c ****             if (error == I2C_Master_MSTR_NO_ERROR)
 116              		.loc 1 67 0
 117 0024 0446     		mov	r4, r0
 118 0026 10B9     		cbnz	r0, .L6
  68:I2C_Interface.c ****             {
  69:I2C_Interface.c ****                 *data = I2C_Master_MasterReadByte(I2C_Master_NAK_DATA);
 119              		.loc 1 69 0
 120 0028 FFF7FEFF 		bl	I2C_Master_MasterReadByte
 121              	.LVL9:
 122 002c 3870     		strb	r0, [r7]
 123              	.L6:
 124              	.LVL10:
  70:I2C_Interface.c ****                 //I send a not aknowledgment so that the program doesn't expect any other data
  71:I2C_Interface.c ****             }
  72:I2C_Interface.c ****         }
  73:I2C_Interface.c ****     }
  74:I2C_Interface.c ****     // Stop Comunication
  75:I2C_Interface.c ****     I2C_Master_MasterSendStop();
 125              		.loc 1 75 0
 126 002e FFF7FEFF 		bl	I2C_Master_MasterSendStop
 127              	.LVL11:
  76:I2C_Interface.c ****     //Return
  77:I2C_Interface.c ****     return error ? ERROR : NO_ERROR;
  78:I2C_Interface.c ****     
  79:I2C_Interface.c **** }
 128              		.loc 1 79 0
 129 0032 201C     		adds	r0, r4, #0
 130 0034 18BF     		it	ne
 131 0036 0120     		movne	r0, #1
 132 0038 F8BD     		pop	{r3, r4, r5, r6, r7, pc}
 133              		.cfi_endproc
 134              	.LFE66:
 135              		.size	I2C_Peripheral_ReadRegister, .-I2C_Peripheral_ReadRegister
 136 003a 00BF     		.section	.text.I2C_Peripheral_ReadRegisterMulti,"ax",%progbits
 137              		.align	2
 138              		.global	I2C_Peripheral_ReadRegisterMulti
 139              		.thumb
 140              		.thumb_func
 141              		.type	I2C_Peripheral_ReadRegisterMulti, %function
 142              	I2C_Peripheral_ReadRegisterMulti:
 143              	.LFB67:
  80:I2C_Interface.c ****                                     
  81:I2C_Interface.c **** // --------------------------------------------------------------------------------- //
  82:I2C_Interface.c **** 
  83:I2C_Interface.c **** ErrorCode I2C_Peripheral_ReadRegisterMulti(uint8_t device_address,
  84:I2C_Interface.c ****                                            uint8_t register_address,
  85:I2C_Interface.c ****                                            uint8_t register_count,
ARM GAS  C:\Users\umber\AppData\Local\Temp\ccCnstrg.s 			page 5


  86:I2C_Interface.c ****                                            uint8_t* data) {
 144              		.loc 1 86 0
 145              		.cfi_startproc
 146              		@ args = 0, pretend = 0, frame = 0
 147              		@ frame_needed = 0, uses_anonymous_args = 0
 148              	.LVL12:
 149 0000 2DE9F041 		push	{r4, r5, r6, r7, r8, lr}
 150              		.cfi_def_cfa_offset 24
 151              		.cfi_offset 4, -24
 152              		.cfi_offset 5, -20
 153              		.cfi_offset 6, -16
 154              		.cfi_offset 7, -12
 155              		.cfi_offset 8, -8
 156              		.cfi_offset 14, -4
 157 0004 8046     		mov	r8, r0
 158 0006 0C46     		mov	r4, r1
 159 0008 1646     		mov	r6, r2
 160 000a 1F46     		mov	r7, r3
  87:I2C_Interface.c ****     
  88:I2C_Interface.c ****     // Send start condition
  89:I2C_Interface.c ****     uint8_t error = I2C_Master_MasterSendStart(device_address, I2C_Master_WRITE_XFER_MODE);
 161              		.loc 1 89 0
 162 000c 0021     		movs	r1, #0
 163              	.LVL13:
 164 000e FFF7FEFF 		bl	I2C_Master_MasterSendStart
 165              	.LVL14:
  90:I2C_Interface.c ****     if (error == I2C_Master_MSTR_NO_ERROR)
 166              		.loc 1 90 0
 167 0012 0546     		mov	r5, r0
 168 0014 F0B9     		cbnz	r0, .L9
 169              	.LVL15:
  91:I2C_Interface.c ****     {
  92:I2C_Interface.c ****         // Write register address to be read with the MSB = 1
  93:I2C_Interface.c ****         register_address |= 0x80; //Datasheet indication for multi read -- autoincrement
  94:I2C_Interface.c ****         error = I2C_Master_MasterWriteByte(register_address);
 170              		.loc 1 94 0
 171 0016 44F08000 		orr	r0, r4, #128
 172              	.LVL16:
 173 001a FFF7FEFF 		bl	I2C_Master_MasterWriteByte
 174              	.LVL17:
  95:I2C_Interface.c ****         if (error == I2C_Master_MSTR_NO_ERROR)
 175              		.loc 1 95 0
 176 001e 0546     		mov	r5, r0
 177 0020 C0B9     		cbnz	r0, .L9
  96:I2C_Interface.c ****         {
  97:I2C_Interface.c ****             // Send Restart condition
  98:I2C_Interface.c ****             error = I2C_Master_MasterSendRestart(device_address, I2C_Master_READ_XFER_MODE);
 178              		.loc 1 98 0
 179 0022 0121     		movs	r1, #1
 180 0024 4046     		mov	r0, r8
 181              	.LVL18:
 182 0026 FFF7FEFF 		bl	I2C_Master_MasterSendRestart
 183              	.LVL19:
  99:I2C_Interface.c ****             if (error == I2C_Master_MSTR_NO_ERROR)
 184              		.loc 1 99 0
 185 002a 0546     		mov	r5, r0
 186 002c 50B1     		cbz	r0, .L12
ARM GAS  C:\Users\umber\AppData\Local\Temp\ccCnstrg.s 			page 6


 187 002e 11E0     		b	.L9
 188              	.LVL20:
 189              	.L11:
 190              	.LBB2:
 100:I2C_Interface.c ****             {
 101:I2C_Interface.c ****                 // Continue to read until we have register to be read
 102:I2C_Interface.c ****                 uint8_t counter = register_count;
 103:I2C_Interface.c ****                 while (counter > 1)
 104:I2C_Interface.c ****                 {
 105:I2C_Interface.c ****                     data[register_count - counter] = 
 191              		.loc 1 105 0
 192 0030 C4EB0608 		rsb	r8, r4, r6
 106:I2C_Interface.c ****                         I2C_Master_MasterReadByte(I2C_Master_ACK_DATA);
 193              		.loc 1 106 0
 194 0034 0120     		movs	r0, #1
 195 0036 FFF7FEFF 		bl	I2C_Master_MasterReadByte
 196              	.LVL21:
 105:I2C_Interface.c ****                         I2C_Master_MasterReadByte(I2C_Master_ACK_DATA);
 197              		.loc 1 105 0
 198 003a 07F80800 		strb	r0, [r7, r8]
 107:I2C_Interface.c ****                         counter --;
 199              		.loc 1 107 0
 200 003e 013C     		subs	r4, r4, #1
 201              	.LVL22:
 202 0040 E4B2     		uxtb	r4, r4
 203              	.LVL23:
 204 0042 00E0     		b	.L10
 205              	.LVL24:
 206              	.L12:
 207              	.LBE2:
 208 0044 3446     		mov	r4, r6
 209              	.LVL25:
 210              	.L10:
 211              	.LBB3:
 103:I2C_Interface.c ****                 {
 212              		.loc 1 103 0
 213 0046 012C     		cmp	r4, #1
 214 0048 F2D8     		bhi	.L11
 108:I2C_Interface.c ****                 }
 109:I2C_Interface.c ****                 // Read last data without acknolowledgment
 110:I2C_Interface.c ****                 data[register_count - 1] = 
 215              		.loc 1 110 0
 216 004a 013E     		subs	r6, r6, #1
 111:I2C_Interface.c ****                     I2C_Master_MasterReadByte(I2C_Master_NAK_DATA);
 217              		.loc 1 111 0
 218 004c 0020     		movs	r0, #0
 219 004e FFF7FEFF 		bl	I2C_Master_MasterReadByte
 220              	.LVL26:
 110:I2C_Interface.c ****                     I2C_Master_MasterReadByte(I2C_Master_NAK_DATA);
 221              		.loc 1 110 0
 222 0052 B855     		strb	r0, [r7, r6]
 223              	.LVL27:
 224              	.L9:
 225              	.LBE3:
 112:I2C_Interface.c ****             }
 113:I2C_Interface.c ****         }
 114:I2C_Interface.c ****     }
ARM GAS  C:\Users\umber\AppData\Local\Temp\ccCnstrg.s 			page 7


 115:I2C_Interface.c ****     // Send Stop Condition
 116:I2C_Interface.c ****     I2C_Master_MasterSendStop();
 226              		.loc 1 116 0
 227 0054 FFF7FEFF 		bl	I2C_Master_MasterSendStop
 228              	.LVL28:
 117:I2C_Interface.c ****     // Return Error Code
 118:I2C_Interface.c ****     return error ? ERROR : NO_ERROR;
 119:I2C_Interface.c ****                                               
 120:I2C_Interface.c **** }
 229              		.loc 1 120 0
 230 0058 281C     		adds	r0, r5, #0
 231 005a 18BF     		it	ne
 232 005c 0120     		movne	r0, #1
 233 005e BDE8F081 		pop	{r4, r5, r6, r7, r8, pc}
 234              		.cfi_endproc
 235              	.LFE67:
 236              		.size	I2C_Peripheral_ReadRegisterMulti, .-I2C_Peripheral_ReadRegisterMulti
 237 0062 00BF     		.section	.text.I2C_Peripheral_WriteRegister,"ax",%progbits
 238              		.align	2
 239              		.global	I2C_Peripheral_WriteRegister
 240              		.thumb
 241              		.thumb_func
 242              		.type	I2C_Peripheral_WriteRegister, %function
 243              	I2C_Peripheral_WriteRegister:
 244              	.LFB68:
 121:I2C_Interface.c ****                                         
 122:I2C_Interface.c **** // --------------------------------------------------------------------------------- //
 123:I2C_Interface.c **** 
 124:I2C_Interface.c **** ErrorCode I2C_Peripheral_WriteRegister(uint8_t device_address,
 125:I2C_Interface.c ****                                        uint8_t register_address,
 126:I2C_Interface.c ****                                        uint8_t data) {
 245              		.loc 1 126 0
 246              		.cfi_startproc
 247              		@ args = 0, pretend = 0, frame = 0
 248              		@ frame_needed = 0, uses_anonymous_args = 0
 249              	.LVL29:
 250 0000 70B5     		push	{r4, r5, r6, lr}
 251              		.cfi_def_cfa_offset 16
 252              		.cfi_offset 4, -16
 253              		.cfi_offset 5, -12
 254              		.cfi_offset 6, -8
 255              		.cfi_offset 14, -4
 256 0002 0D46     		mov	r5, r1
 257 0004 1646     		mov	r6, r2
 127:I2C_Interface.c ****     
 128:I2C_Interface.c ****     
 129:I2C_Interface.c ****     // Send Start Condition
 130:I2C_Interface.c ****     uint8_t error = I2C_Master_MasterSendStart(device_address, I2C_Master_WRITE_XFER_MODE);
 258              		.loc 1 130 0
 259 0006 0021     		movs	r1, #0
 260              	.LVL30:
 261 0008 FFF7FEFF 		bl	I2C_Master_MasterSendStart
 262              	.LVL31:
 131:I2C_Interface.c ****     if (error == I2C_Master_MSTR_NO_ERROR)
 263              		.loc 1 131 0
 264 000c 0446     		mov	r4, r0
 265 000e 40B9     		cbnz	r0, .L15
ARM GAS  C:\Users\umber\AppData\Local\Temp\ccCnstrg.s 			page 8


 132:I2C_Interface.c ****     {
 133:I2C_Interface.c ****         //Write Register Address (to be overwritten)
 134:I2C_Interface.c ****         error = I2C_Master_MasterWriteByte(register_address);
 266              		.loc 1 134 0
 267 0010 2846     		mov	r0, r5
 268              	.LVL32:
 269 0012 FFF7FEFF 		bl	I2C_Master_MasterWriteByte
 270              	.LVL33:
 135:I2C_Interface.c ****         if (error == I2C_Master_MSTR_NO_ERROR)
 271              		.loc 1 135 0
 272 0016 0446     		mov	r4, r0
 273 0018 18B9     		cbnz	r0, .L15
 136:I2C_Interface.c ****         {
 137:I2C_Interface.c ****             // Write Byte
 138:I2C_Interface.c ****             error = I2C_Master_MasterWriteByte(data);
 274              		.loc 1 138 0
 275 001a 3046     		mov	r0, r6
 276              	.LVL34:
 277 001c FFF7FEFF 		bl	I2C_Master_MasterWriteByte
 278              	.LVL35:
 279 0020 0446     		mov	r4, r0
 280              	.LVL36:
 281              	.L15:
 139:I2C_Interface.c ****         }
 140:I2C_Interface.c ****     }
 141:I2C_Interface.c ****     // Close Communication
 142:I2C_Interface.c ****     I2C_Master_MasterSendStop();
 282              		.loc 1 142 0
 283 0022 FFF7FEFF 		bl	I2C_Master_MasterSendStop
 284              	.LVL37:
 143:I2C_Interface.c ****     // Return
 144:I2C_Interface.c ****     return error ? ERROR : NO_ERROR;
 145:I2C_Interface.c **** }
 285              		.loc 1 145 0
 286 0026 201C     		adds	r0, r4, #0
 287 0028 18BF     		it	ne
 288 002a 0120     		movne	r0, #1
 289 002c 70BD     		pop	{r4, r5, r6, pc}
 290              		.cfi_endproc
 291              	.LFE68:
 292              		.size	I2C_Peripheral_WriteRegister, .-I2C_Peripheral_WriteRegister
 293 002e 00BF     		.section	.text.I2C_Peripheral_IsDeviceConnected,"ax",%progbits
 294              		.align	2
 295              		.global	I2C_Peripheral_IsDeviceConnected
 296              		.thumb
 297              		.thumb_func
 298              		.type	I2C_Peripheral_IsDeviceConnected, %function
 299              	I2C_Peripheral_IsDeviceConnected:
 300              	.LFB69:
 146:I2C_Interface.c ****                                     
 147:I2C_Interface.c **** 
 148:I2C_Interface.c ****                                             
 149:I2C_Interface.c **** // --------------------------------------------------------------------------------- //
 150:I2C_Interface.c **** 
 151:I2C_Interface.c **** uint8_t I2C_Peripheral_IsDeviceConnected(uint8_t device_address) {
 301              		.loc 1 151 0
 302              		.cfi_startproc
ARM GAS  C:\Users\umber\AppData\Local\Temp\ccCnstrg.s 			page 9


 303              		@ args = 0, pretend = 0, frame = 0
 304              		@ frame_needed = 0, uses_anonymous_args = 0
 305              	.LVL38:
 306 0000 10B5     		push	{r4, lr}
 307              		.cfi_def_cfa_offset 8
 308              		.cfi_offset 4, -8
 309              		.cfi_offset 14, -4
 152:I2C_Interface.c ****     
 153:I2C_Interface.c ****     // Send a start condition followed by a stop condition
 154:I2C_Interface.c ****     uint8_t error = I2C_Master_MasterSendStart(device_address, I2C_Master_WRITE_XFER_MODE);
 310              		.loc 1 154 0
 311 0002 0021     		movs	r1, #0
 312 0004 FFF7FEFF 		bl	I2C_Master_MasterSendStart
 313              	.LVL39:
 314 0008 0446     		mov	r4, r0
 315              	.LVL40:
 155:I2C_Interface.c ****     I2C_Master_MasterSendStop();
 316              		.loc 1 155 0
 317 000a FFF7FEFF 		bl	I2C_Master_MasterSendStop
 318              	.LVL41:
 156:I2C_Interface.c ****     // If no error generated during stop, device is connected
 157:I2C_Interface.c ****     return (error == I2C_Master_MSTR_NO_ERROR ? DEVICE_CONNECTED : DEVICE_UNCONNECTED);
 158:I2C_Interface.c ****     
 159:I2C_Interface.c **** }
 319              		.loc 1 159 0
 320 000e B4FA84F0 		clz	r0, r4
 321 0012 4009     		lsrs	r0, r0, #5
 322 0014 10BD     		pop	{r4, pc}
 323              		.cfi_endproc
 324              	.LFE69:
 325              		.size	I2C_Peripheral_IsDeviceConnected, .-I2C_Peripheral_IsDeviceConnected
 326 0016 00BF     		.section	.text.setReg,"ax",%progbits
 327              		.align	2
 328              		.global	setReg
 329              		.thumb
 330              		.thumb_func
 331              		.type	setReg, %function
 332              	setReg:
 333              	.LFB70:
 160:I2C_Interface.c **** 
 161:I2C_Interface.c **** // --------------------------------------------------------------------------------- //
 162:I2C_Interface.c **** 
 163:I2C_Interface.c **** void setReg(uint8_t setReg,uint8_t setAddress){
 334              		.loc 1 163 0
 335              		.cfi_startproc
 336              		@ args = 0, pretend = 0, frame = 0
 337              		@ frame_needed = 0, uses_anonymous_args = 0
 338              	.LVL42:
 339 0000 70B5     		push	{r4, r5, r6, lr}
 340              		.cfi_def_cfa_offset 16
 341              		.cfi_offset 4, -16
 342              		.cfi_offset 5, -12
 343              		.cfi_offset 6, -8
 344              		.cfi_offset 14, -4
 345 0002 0546     		mov	r5, r0
 346 0004 0E46     		mov	r6, r1
 164:I2C_Interface.c ****     UART_BT_PutString("\r\nWriting new values...\r\n");
ARM GAS  C:\Users\umber\AppData\Local\Temp\ccCnstrg.s 			page 10


 347              		.loc 1 164 0
 348 0006 104C     		ldr	r4, .L23
 349 0008 2046     		mov	r0, r4
 350              	.LVL43:
 351 000a FFF7FEFF 		bl	UART_BT_PutString
 352              	.LVL44:
 165:I2C_Interface.c ****     UART_PutString("\r\nWriting new values...\r\n");
 353              		.loc 1 165 0
 354 000e 2046     		mov	r0, r4
 355 0010 FFF7FEFF 		bl	UART_PutString
 356              	.LVL45:
 166:I2C_Interface.c ****         
 167:I2C_Interface.c ****     ErrorCode errorSet = I2C_Peripheral_WriteRegister(LIS3DH_DEVICE_ADDRESS,
 357              		.loc 1 167 0
 358 0014 2A46     		mov	r2, r5
 359 0016 3146     		mov	r1, r6
 360 0018 1820     		movs	r0, #24
 361 001a FFF7FEFF 		bl	I2C_Peripheral_WriteRegister
 362              	.LVL46:
 168:I2C_Interface.c ****                                          setAddress,
 169:I2C_Interface.c ****                                          setReg);
 170:I2C_Interface.c ****     
 171:I2C_Interface.c ****     if (errorSet == NO_ERROR)
 363              		.loc 1 171 0
 364 001e 60B9     		cbnz	r0, .L20
 172:I2C_Interface.c ****     {
 173:I2C_Interface.c ****         sprintf(message, "\r\nRegister successfully written as: 0x%02X\r\n", setReg);
 365              		.loc 1 173 0
 366 0020 0A4C     		ldr	r4, .L23+4
 367 0022 2A46     		mov	r2, r5
 368 0024 0A49     		ldr	r1, .L23+8
 369 0026 2046     		mov	r0, r4
 370              	.LVL47:
 371 0028 FFF7FEFF 		bl	sprintf
 372              	.LVL48:
 174:I2C_Interface.c ****         UART_BT_PutString(message);
 373              		.loc 1 174 0
 374 002c 2046     		mov	r0, r4
 375 002e FFF7FEFF 		bl	UART_BT_PutString
 376              	.LVL49:
 175:I2C_Interface.c ****         UART_PutString(message);
 377              		.loc 1 175 0
 378 0032 2046     		mov	r0, r4
 379 0034 FFF7FEFF 		bl	UART_PutString
 380              	.LVL50:
 381 0038 70BD     		pop	{r4, r5, r6, pc}
 382              	.LVL51:
 383              	.L20:
 176:I2C_Interface.c ****     }
 177:I2C_Interface.c ****     else
 178:I2C_Interface.c ****     {
 179:I2C_Interface.c ****         UART_BT_PutString("\r\nError occured during I2C comm to set the register \r\n");
 384              		.loc 1 179 0
 385 003a 0648     		ldr	r0, .L23+12
 386              	.LVL52:
 387 003c FFF7FEFF 		bl	UART_BT_PutString
 388              	.LVL53:
ARM GAS  C:\Users\umber\AppData\Local\Temp\ccCnstrg.s 			page 11


 180:I2C_Interface.c ****         UART_PutString("\r\nError occured during I2C comm to set the register\r\n");
 389              		.loc 1 180 0
 390 0040 0548     		ldr	r0, .L23+16
 391 0042 FFF7FEFF 		bl	UART_PutString
 392              	.LVL54:
 393 0046 70BD     		pop	{r4, r5, r6, pc}
 394              	.L24:
 395              		.align	2
 396              	.L23:
 397 0048 00000000 		.word	.LC0
 398 004c 00000000 		.word	message
 399 0050 1C000000 		.word	.LC1
 400 0054 4C000000 		.word	.LC2
 401 0058 84000000 		.word	.LC3
 402              		.cfi_endproc
 403              	.LFE70:
 404              		.size	setReg, .-setReg
 405              		.section	.text.readReg,"ax",%progbits
 406              		.align	2
 407              		.global	readReg
 408              		.thumb
 409              		.thumb_func
 410              		.type	readReg, %function
 411              	readReg:
 412              	.LFB71:
 181:I2C_Interface.c ****     }
 182:I2C_Interface.c **** }
 183:I2C_Interface.c **** 
 184:I2C_Interface.c **** // --------------------------------------------------------------------------------- //
 185:I2C_Interface.c **** 
 186:I2C_Interface.c **** void readReg(uint8_t readReg,uint8_t readAddress){
 413              		.loc 1 186 0
 414              		.cfi_startproc
 415              		@ args = 0, pretend = 0, frame = 8
 416              		@ frame_needed = 0, uses_anonymous_args = 0
 417              	.LVL55:
 418 0000 10B5     		push	{r4, lr}
 419              		.cfi_def_cfa_offset 8
 420              		.cfi_offset 4, -8
 421              		.cfi_offset 14, -4
 422 0002 82B0     		sub	sp, sp, #8
 423              		.cfi_def_cfa_offset 16
 424 0004 02AA     		add	r2, sp, #8
 425 0006 02F8010D 		strb	r0, [r2, #-1]!
 187:I2C_Interface.c **** 
 188:I2C_Interface.c ****     ErrorCode errorRead = I2C_Peripheral_ReadRegister(LIS3DH_DEVICE_ADDRESS,
 426              		.loc 1 188 0
 427 000a 1820     		movs	r0, #24
 428              	.LVL56:
 429 000c FFF7FEFF 		bl	I2C_Peripheral_ReadRegister
 430              	.LVL57:
 189:I2C_Interface.c ****                                         readAddress,
 190:I2C_Interface.c ****                                          &readReg);
 191:I2C_Interface.c ****     
 192:I2C_Interface.c ****     if( errorRead == NO_ERROR ) {
 431              		.loc 1 192 0
 432 0010 68B9     		cbnz	r0, .L26
ARM GAS  C:\Users\umber\AppData\Local\Temp\ccCnstrg.s 			page 12


 193:I2C_Interface.c ****         sprintf(message, "Register value: 0x%02X\r\n", readReg);
 433              		.loc 1 193 0
 434 0012 0B4C     		ldr	r4, .L29
 435 0014 9DF80720 		ldrb	r2, [sp, #7]	@ zero_extendqisi2
 436 0018 0A49     		ldr	r1, .L29+4
 437 001a 2046     		mov	r0, r4
 438              	.LVL58:
 439 001c FFF7FEFF 		bl	sprintf
 440              	.LVL59:
 194:I2C_Interface.c ****         UART_BT_PutString(message);
 441              		.loc 1 194 0
 442 0020 2046     		mov	r0, r4
 443 0022 FFF7FEFF 		bl	UART_BT_PutString
 444              	.LVL60:
 195:I2C_Interface.c ****         UART_PutString(message);
 445              		.loc 1 195 0
 446 0026 2046     		mov	r0, r4
 447 0028 FFF7FEFF 		bl	UART_PutString
 448              	.LVL61:
 449 002c 06E0     		b	.L25
 450              	.LVL62:
 451              	.L26:
 196:I2C_Interface.c ****     }
 197:I2C_Interface.c ****     else {
 198:I2C_Interface.c ****         UART_BT_PutString("I2C error while reading the register\r\n");
 452              		.loc 1 198 0
 453 002e 064C     		ldr	r4, .L29+8
 454 0030 2046     		mov	r0, r4
 455              	.LVL63:
 456 0032 FFF7FEFF 		bl	UART_BT_PutString
 457              	.LVL64:
 199:I2C_Interface.c ****         UART_PutString("I2C error while reading the register\r\n");
 458              		.loc 1 199 0
 459 0036 2046     		mov	r0, r4
 460 0038 FFF7FEFF 		bl	UART_PutString
 461              	.LVL65:
 462              	.L25:
 200:I2C_Interface.c ****     }
 201:I2C_Interface.c **** }
 463              		.loc 1 201 0
 464 003c 02B0     		add	sp, sp, #8
 465              		.cfi_def_cfa_offset 8
 466              	.LVL66:
 467              		@ sp needed
 468 003e 10BD     		pop	{r4, pc}
 469              	.LVL67:
 470              	.L30:
 471              		.align	2
 472              	.L29:
 473 0040 00000000 		.word	message
 474 0044 BC000000 		.word	.LC4
 475 0048 D8000000 		.word	.LC5
 476              		.cfi_endproc
 477              	.LFE71:
 478              		.size	readReg, .-readReg
 479              		.section	.text.deviceStart,"ax",%progbits
 480              		.align	2
ARM GAS  C:\Users\umber\AppData\Local\Temp\ccCnstrg.s 			page 13


 481              		.global	deviceStart
 482              		.thumb
 483              		.thumb_func
 484              		.type	deviceStart, %function
 485              	deviceStart:
 486              	.LFB72:
 202:I2C_Interface.c **** 
 203:I2C_Interface.c **** // --------------------------------------------------------------------------------- //
 204:I2C_Interface.c **** 
 205:I2C_Interface.c **** void deviceStart()
 206:I2C_Interface.c **** {
 487              		.loc 1 206 0
 488              		.cfi_startproc
 489              		@ args = 0, pretend = 0, frame = 8
 490              		@ frame_needed = 0, uses_anonymous_args = 0
 491 0000 30B5     		push	{r4, r5, lr}
 492              		.cfi_def_cfa_offset 12
 493              		.cfi_offset 4, -12
 494              		.cfi_offset 5, -8
 495              		.cfi_offset 14, -4
 496 0002 83B0     		sub	sp, sp, #12
 497              		.cfi_def_cfa_offset 24
 207:I2C_Interface.c ****     
 208:I2C_Interface.c ****     CyDelay(5); //"The boot procedure is complete about 5 ms after device power-up."
 498              		.loc 1 208 0
 499 0004 0520     		movs	r0, #5
 500 0006 FFF7FEFF 		bl	CyDelay
 501              	.LVL68:
 209:I2C_Interface.c ****     // Check if LIS3DH is connected
 210:I2C_Interface.c ****     uint32_t rval = I2C_Master_MasterSendStart(LIS3DH_DEVICE_ADDRESS, I2C_Master_WRITE_XFER_MODE);
 502              		.loc 1 210 0
 503 000a 0021     		movs	r1, #0
 504 000c 1820     		movs	r0, #24
 505 000e FFF7FEFF 		bl	I2C_Master_MasterSendStart
 506              	.LVL69:
 211:I2C_Interface.c ****     if( rval == I2C_Master_MSTR_NO_ERROR ) {
 507              		.loc 1 211 0
 508 0012 30B9     		cbnz	r0, .L32
 212:I2C_Interface.c ****         UART_BT_PutString("LIS3DH found @ address 0x18\r\n");
 509              		.loc 1 212 0
 510 0014 8A4C     		ldr	r4, .L53
 511 0016 2046     		mov	r0, r4
 512              	.LVL70:
 513 0018 FFF7FEFF 		bl	UART_BT_PutString
 514              	.LVL71:
 213:I2C_Interface.c ****         UART_PutString("LIS3DH found @ address 0x18\r\n");
 515              		.loc 1 213 0
 516 001c 2046     		mov	r0, r4
 517 001e FFF7FEFF 		bl	UART_PutString
 518              	.LVL72:
 519              	.L32:
 214:I2C_Interface.c ****     }
 215:I2C_Interface.c ****     I2C_Master_MasterSendStop();
 520              		.loc 1 215 0
 521 0022 FFF7FEFF 		bl	I2C_Master_MasterSendStop
 522              	.LVL73:
 216:I2C_Interface.c ****     
ARM GAS  C:\Users\umber\AppData\Local\Temp\ccCnstrg.s 			page 14


 217:I2C_Interface.c ****     UART_PutString("**************\r\n");
 523              		.loc 1 217 0
 524 0026 874C     		ldr	r4, .L53+4
 525 0028 2046     		mov	r0, r4
 526 002a FFF7FEFF 		bl	UART_PutString
 527              	.LVL74:
 218:I2C_Interface.c ****     UART_PutString("** I2C Scan **\r\n");
 528              		.loc 1 218 0
 529 002e 864D     		ldr	r5, .L53+8
 530 0030 2846     		mov	r0, r5
 531 0032 FFF7FEFF 		bl	UART_PutString
 532              	.LVL75:
 219:I2C_Interface.c ****     UART_PutString("**************\r\n");
 533              		.loc 1 219 0
 534 0036 2046     		mov	r0, r4
 535 0038 FFF7FEFF 		bl	UART_PutString
 536              	.LVL76:
 220:I2C_Interface.c ****     UART_BT_PutString("**************\r\n");
 537              		.loc 1 220 0
 538 003c 2046     		mov	r0, r4
 539 003e FFF7FEFF 		bl	UART_BT_PutString
 540              	.LVL77:
 221:I2C_Interface.c ****     UART_BT_PutString("** I2C Scan **\r\n");
 541              		.loc 1 221 0
 542 0042 2846     		mov	r0, r5
 543 0044 FFF7FEFF 		bl	UART_BT_PutString
 544              	.LVL78:
 222:I2C_Interface.c ****     UART_BT_PutString("**************\r\n");
 545              		.loc 1 222 0
 546 0048 2046     		mov	r0, r4
 547 004a FFF7FEFF 		bl	UART_BT_PutString
 548              	.LVL79:
 223:I2C_Interface.c ****     
 224:I2C_Interface.c ****     CyDelay(10);
 549              		.loc 1 224 0
 550 004e 0A20     		movs	r0, #10
 551 0050 FFF7FEFF 		bl	CyDelay
 552              	.LVL80:
 225:I2C_Interface.c ****     
 226:I2C_Interface.c ****     // Setup the screen and print the header
 227:I2C_Interface.c **** 	UART_BT_PutString("\n\n   ");
 553              		.loc 1 227 0
 554 0054 7D4C     		ldr	r4, .L53+12
 555 0056 2046     		mov	r0, r4
 556 0058 FFF7FEFF 		bl	UART_BT_PutString
 557              	.LVL81:
 228:I2C_Interface.c ****     UART_PutString("\n\n   ");
 558              		.loc 1 228 0
 559 005c 2046     		mov	r0, r4
 560 005e FFF7FEFF 		bl	UART_PutString
 561              	.LVL82:
 562              	.LBB4:
 229:I2C_Interface.c **** 	for(uint8_t i = 0; i<0x10; i++)
 563              		.loc 1 229 0
 564 0062 0024     		movs	r4, #0
 565 0064 0DE0     		b	.L33
 566              	.LVL83:
ARM GAS  C:\Users\umber\AppData\Local\Temp\ccCnstrg.s 			page 15


 567              	.L34:
 230:I2C_Interface.c **** 	{
 231:I2C_Interface.c ****         sprintf(message, "%02X ", i);
 568              		.loc 1 231 0 discriminator 3
 569 0066 7A4D     		ldr	r5, .L53+16
 570 0068 2246     		mov	r2, r4
 571 006a 7A49     		ldr	r1, .L53+20
 572 006c 2846     		mov	r0, r5
 573 006e FFF7FEFF 		bl	sprintf
 574              	.LVL84:
 232:I2C_Interface.c **** 		UART_BT_PutString(message);
 575              		.loc 1 232 0 discriminator 3
 576 0072 2846     		mov	r0, r5
 577 0074 FFF7FEFF 		bl	UART_BT_PutString
 578              	.LVL85:
 233:I2C_Interface.c ****         UART_PutString(message);
 579              		.loc 1 233 0 discriminator 3
 580 0078 2846     		mov	r0, r5
 581 007a FFF7FEFF 		bl	UART_PutString
 582              	.LVL86:
 229:I2C_Interface.c **** 	{
 583              		.loc 1 229 0 discriminator 3
 584 007e 0134     		adds	r4, r4, #1
 585              	.LVL87:
 586 0080 E4B2     		uxtb	r4, r4
 587              	.LVL88:
 588              	.L33:
 229:I2C_Interface.c **** 	{
 589              		.loc 1 229 0 is_stmt 0 discriminator 1
 590 0082 0F2C     		cmp	r4, #15
 591 0084 EFD9     		bls	.L34
 592 0086 0024     		movs	r4, #0
 593              	.LVL89:
 594 0088 2BE0     		b	.L35
 595              	.LVL90:
 596              	.L39:
 597              	.LBE4:
 598              	.LBB5:
 234:I2C_Interface.c **** 	}
 235:I2C_Interface.c ****     
 236:I2C_Interface.c ****     // SCAN the I2C BUS for slaves
 237:I2C_Interface.c **** 	for(uint8_t i2caddress = 0; i2caddress < 0x80; i2caddress++ ) {
 238:I2C_Interface.c ****         
 239:I2C_Interface.c **** 		if(i2caddress % 0x10 == 0 ) {
 599              		.loc 1 239 0 is_stmt 1
 600 008a 14F00F0F 		tst	r4, #15
 601 008e 0BD1     		bne	.L36
 240:I2C_Interface.c ****             sprintf(message, "\n%02X ", i2caddress);
 602              		.loc 1 240 0
 603 0090 6F4D     		ldr	r5, .L53+16
 604 0092 2246     		mov	r2, r4
 605 0094 7049     		ldr	r1, .L53+24
 606 0096 2846     		mov	r0, r5
 607 0098 FFF7FEFF 		bl	sprintf
 608              	.LVL91:
 241:I2C_Interface.c **** 		    UART_PutString(message);
 609              		.loc 1 241 0
ARM GAS  C:\Users\umber\AppData\Local\Temp\ccCnstrg.s 			page 16


 610 009c 2846     		mov	r0, r5
 611 009e FFF7FEFF 		bl	UART_PutString
 612              	.LVL92:
 242:I2C_Interface.c ****             UART_BT_PutString(message);
 613              		.loc 1 242 0
 614 00a2 2846     		mov	r0, r5
 615 00a4 FFF7FEFF 		bl	UART_BT_PutString
 616              	.LVL93:
 617              	.L36:
 243:I2C_Interface.c ****         }
 244:I2C_Interface.c ****  
 245:I2C_Interface.c **** 		rval = I2C_Master_MasterSendStart(i2caddress, I2C_Master_WRITE_XFER_MODE);
 618              		.loc 1 245 0
 619 00a8 0021     		movs	r1, #0
 620 00aa 2046     		mov	r0, r4
 621 00ac FFF7FEFF 		bl	I2C_Master_MasterSendStart
 622              	.LVL94:
 246:I2C_Interface.c ****         
 247:I2C_Interface.c ****         if( rval == I2C_Master_MSTR_NO_ERROR ) // If you get ACK then print the address
 623              		.loc 1 247 0
 624 00b0 60B9     		cbnz	r0, .L37
 248:I2C_Interface.c **** 		{
 249:I2C_Interface.c ****             sprintf(message, "%02X ", i2caddress);
 625              		.loc 1 249 0
 626 00b2 674D     		ldr	r5, .L53+16
 627 00b4 2246     		mov	r2, r4
 628 00b6 6749     		ldr	r1, .L53+20
 629 00b8 2846     		mov	r0, r5
 630              	.LVL95:
 631 00ba FFF7FEFF 		bl	sprintf
 632              	.LVL96:
 250:I2C_Interface.c **** 		    UART_PutString(message);
 633              		.loc 1 250 0
 634 00be 2846     		mov	r0, r5
 635 00c0 FFF7FEFF 		bl	UART_PutString
 636              	.LVL97:
 251:I2C_Interface.c ****             UART_BT_PutString(message);
 637              		.loc 1 251 0
 638 00c4 2846     		mov	r0, r5
 639 00c6 FFF7FEFF 		bl	UART_BT_PutString
 640              	.LVL98:
 641 00ca 06E0     		b	.L38
 642              	.LVL99:
 643              	.L37:
 252:I2C_Interface.c **** 		}
 253:I2C_Interface.c **** 		else //  Otherwise print a --
 254:I2C_Interface.c **** 		{
 255:I2C_Interface.c **** 		    UART_BT_PutString("-- ");
 644              		.loc 1 255 0
 645 00cc 634D     		ldr	r5, .L53+28
 646 00ce 2846     		mov	r0, r5
 647              	.LVL100:
 648 00d0 FFF7FEFF 		bl	UART_BT_PutString
 649              	.LVL101:
 256:I2C_Interface.c ****             UART_PutString("-- ");
 650              		.loc 1 256 0
 651 00d4 2846     		mov	r0, r5
ARM GAS  C:\Users\umber\AppData\Local\Temp\ccCnstrg.s 			page 17


 652 00d6 FFF7FEFF 		bl	UART_PutString
 653              	.LVL102:
 654              	.L38:
 257:I2C_Interface.c **** 		}
 258:I2C_Interface.c ****         I2C_Master_MasterSendStop();
 655              		.loc 1 258 0 discriminator 2
 656 00da FFF7FEFF 		bl	I2C_Master_MasterSendStop
 657              	.LVL103:
 237:I2C_Interface.c ****         
 658              		.loc 1 237 0 discriminator 2
 659 00de 0134     		adds	r4, r4, #1
 660              	.LVL104:
 661 00e0 E4B2     		uxtb	r4, r4
 662              	.LVL105:
 663              	.L35:
 237:I2C_Interface.c ****         
 664              		.loc 1 237 0 is_stmt 0 discriminator 1
 665 00e2 14F0800F 		tst	r4, #128
 666 00e6 D0D0     		beq	.L39
 667              	.LBE5:
 259:I2C_Interface.c **** 	}
 260:I2C_Interface.c ****     
 261:I2C_Interface.c **** 	UART_PutString("\n\n");
 668              		.loc 1 261 0 is_stmt 1
 669 00e8 5D4C     		ldr	r4, .L53+32
 670              	.LVL106:
 671 00ea 2046     		mov	r0, r4
 672 00ec FFF7FEFF 		bl	UART_PutString
 673              	.LVL107:
 262:I2C_Interface.c ****     UART_BT_PutString("\n\n");
 674              		.loc 1 262 0
 675 00f0 2046     		mov	r0, r4
 676 00f2 FFF7FEFF 		bl	UART_BT_PutString
 677              	.LVL108:
 263:I2C_Interface.c ****     
 264:I2C_Interface.c ****     /******************************************/
 265:I2C_Interface.c ****     /*            I2C Reading                 */
 266:I2C_Interface.c ****     /******************************************/
 267:I2C_Interface.c ****           
 268:I2C_Interface.c ****     /*      I2C Master Read - WHOAMI Register       */
 269:I2C_Interface.c ****     uint8_t whoami_reg;
 270:I2C_Interface.c ****     ErrorCode error = I2C_Peripheral_ReadRegister(LIS3DH_DEVICE_ADDRESS, 
 678              		.loc 1 270 0
 679 00f6 0DF10702 		add	r2, sp, #7
 680 00fa 0F21     		movs	r1, #15
 681 00fc 1820     		movs	r0, #24
 682 00fe FFF7FEFF 		bl	I2C_Peripheral_ReadRegister
 683              	.LVL109:
 271:I2C_Interface.c ****                                                   LIS3DH_WHO_AM_I_REG_ADDR,
 272:I2C_Interface.c ****                                                   &whoami_reg);
 273:I2C_Interface.c ****     if( error == NO_ERROR ) {
 684              		.loc 1 273 0
 685 0102 58B9     		cbnz	r0, .L40
 274:I2C_Interface.c ****         sprintf(message, "WHOAMI register value: 0x%02X [Expected value: 0x%02X]\r\n", whoami_reg, 
 686              		.loc 1 274 0
 687 0104 524C     		ldr	r4, .L53+16
 688 0106 3323     		movs	r3, #51
ARM GAS  C:\Users\umber\AppData\Local\Temp\ccCnstrg.s 			page 18


 689 0108 9DF80720 		ldrb	r2, [sp, #7]	@ zero_extendqisi2
 690 010c 5549     		ldr	r1, .L53+36
 691 010e 2046     		mov	r0, r4
 692              	.LVL110:
 693 0110 FFF7FEFF 		bl	sprintf
 694              	.LVL111:
 275:I2C_Interface.c ****         UART_PutString(message);
 695              		.loc 1 275 0
 696 0114 2046     		mov	r0, r4
 697 0116 FFF7FEFF 		bl	UART_PutString
 698              	.LVL112:
 699 011a 02E0     		b	.L41
 700              	.LVL113:
 701              	.L40:
 276:I2C_Interface.c ****     }
 277:I2C_Interface.c ****     else {
 278:I2C_Interface.c ****         UART_PutString("I2C error while reading LIS3DH_WHO_AM_I_REG_ADDR\r\n");
 702              		.loc 1 278 0
 703 011c 5248     		ldr	r0, .L53+40
 704              	.LVL114:
 705 011e FFF7FEFF 		bl	UART_PutString
 706              	.LVL115:
 707              	.L41:
 279:I2C_Interface.c ****     }
 280:I2C_Interface.c ****     
 281:I2C_Interface.c ****     
 282:I2C_Interface.c ****     /*      I2C Master Read - STATUS Register       */
 283:I2C_Interface.c ****     
 284:I2C_Interface.c ****     uint8_t status_reg;
 285:I2C_Interface.c ****     error = I2C_Peripheral_ReadRegister(LIS3DH_DEVICE_ADDRESS, 
 708              		.loc 1 285 0
 709 0122 0DF10602 		add	r2, sp, #6
 710 0126 2721     		movs	r1, #39
 711 0128 1820     		movs	r0, #24
 712 012a FFF7FEFF 		bl	I2C_Peripheral_ReadRegister
 713              	.LVL116:
 286:I2C_Interface.c ****                                         LIS3DH_STATUS_REG,
 287:I2C_Interface.c ****                                         &status_reg);
 288:I2C_Interface.c ****     if( error == NO_ERROR ) {
 714              		.loc 1 288 0
 715 012e 50B9     		cbnz	r0, .L42
 289:I2C_Interface.c ****         sprintf(message, "STATUS register value: 0x%02X\r\n", status_reg);
 716              		.loc 1 289 0
 717 0130 474C     		ldr	r4, .L53+16
 718 0132 9DF80620 		ldrb	r2, [sp, #6]	@ zero_extendqisi2
 719 0136 4D49     		ldr	r1, .L53+44
 720 0138 2046     		mov	r0, r4
 721              	.LVL117:
 722 013a FFF7FEFF 		bl	sprintf
 723              	.LVL118:
 290:I2C_Interface.c ****         UART_PutString(message);
 724              		.loc 1 290 0
 725 013e 2046     		mov	r0, r4
 726 0140 FFF7FEFF 		bl	UART_PutString
 727              	.LVL119:
 728 0144 02E0     		b	.L43
 729              	.LVL120:
ARM GAS  C:\Users\umber\AppData\Local\Temp\ccCnstrg.s 			page 19


 730              	.L42:
 291:I2C_Interface.c ****     }
 292:I2C_Interface.c ****     else {
 293:I2C_Interface.c ****         UART_PutString("I2C error while reading LIS3DH_STATUS_REG\r\n");
 731              		.loc 1 293 0
 732 0146 4A48     		ldr	r0, .L53+48
 733              	.LVL121:
 734 0148 FFF7FEFF 		bl	UART_PutString
 735              	.LVL122:
 736              	.L43:
 294:I2C_Interface.c ****     }
 295:I2C_Interface.c ****     
 296:I2C_Interface.c ****     /*      I2C Master Read - CTRL Register 1       */
 297:I2C_Interface.c ****     
 298:I2C_Interface.c ****     uint8_t control_reg_1;
 299:I2C_Interface.c ****     control_reg_1= 0x27; 
 737              		.loc 1 299 0
 738 014c 2722     		movs	r2, #39
 739 014e 02AC     		add	r4, sp, #8
 740 0150 04F8032D 		strb	r2, [r4, #-3]!
 300:I2C_Interface.c ****     error = I2C_Peripheral_WriteRegister(LIS3DH_DEVICE_ADDRESS,
 741              		.loc 1 300 0
 742 0154 2021     		movs	r1, #32
 743 0156 1820     		movs	r0, #24
 744 0158 FFF7FEFF 		bl	I2C_Peripheral_WriteRegister
 745              	.LVL123:
 301:I2C_Interface.c ****                                          LIS3DH_CTRL_REG1,
 302:I2C_Interface.c ****                                          control_reg_1);
 303:I2C_Interface.c ****     
 304:I2C_Interface.c ****     error = I2C_Peripheral_ReadRegister(LIS3DH_DEVICE_ADDRESS,
 746              		.loc 1 304 0
 747 015c 2246     		mov	r2, r4
 748 015e 2021     		movs	r1, #32
 749 0160 1820     		movs	r0, #24
 750 0162 FFF7FEFF 		bl	I2C_Peripheral_ReadRegister
 751              	.LVL124:
 305:I2C_Interface.c ****                                         LIS3DH_CTRL_REG1,
 306:I2C_Interface.c ****                                         &control_reg_1);
 307:I2C_Interface.c **** 
 308:I2C_Interface.c ****     if( error == NO_ERROR ) {
 752              		.loc 1 308 0
 753 0166 50B9     		cbnz	r0, .L44
 309:I2C_Interface.c ****         sprintf(message, "CTRL register 1 value: 0x%02X\r\n", control_reg_1);
 754              		.loc 1 309 0
 755 0168 394C     		ldr	r4, .L53+16
 756 016a 9DF80520 		ldrb	r2, [sp, #5]	@ zero_extendqisi2
 757 016e 4149     		ldr	r1, .L53+52
 758 0170 2046     		mov	r0, r4
 759              	.LVL125:
 760 0172 FFF7FEFF 		bl	sprintf
 761              	.LVL126:
 310:I2C_Interface.c ****         UART_PutString(message);
 762              		.loc 1 310 0
 763 0176 2046     		mov	r0, r4
 764 0178 FFF7FEFF 		bl	UART_PutString
 765              	.LVL127:
 766 017c 02E0     		b	.L45
ARM GAS  C:\Users\umber\AppData\Local\Temp\ccCnstrg.s 			page 20


 767              	.LVL128:
 768              	.L44:
 311:I2C_Interface.c ****     }
 312:I2C_Interface.c ****     else {
 313:I2C_Interface.c ****         UART_PutString("I2C error while reading LIS3DH_CTRL_REG1\r\n");}
 769              		.loc 1 313 0
 770 017e 3E48     		ldr	r0, .L53+56
 771              	.LVL129:
 772 0180 FFF7FEFF 		bl	UART_PutString
 773              	.LVL130:
 774              	.L45:
 314:I2C_Interface.c **** 
 315:I2C_Interface.c ****     
 316:I2C_Interface.c ****     /* CTRL REG 4 Writing from LIS3DH   */ 
 317:I2C_Interface.c ****     uint8_t control_reg_4;
 318:I2C_Interface.c ****     control_reg_4 = 0x00;
 775              		.loc 1 318 0
 776 0184 0022     		movs	r2, #0
 777 0186 02AC     		add	r4, sp, #8
 778 0188 04F8042D 		strb	r2, [r4, #-4]!
 319:I2C_Interface.c ****     error = I2C_Peripheral_WriteRegister(LIS3DH_DEVICE_ADDRESS,
 779              		.loc 1 319 0
 780 018c 2321     		movs	r1, #35
 781 018e 1820     		movs	r0, #24
 782 0190 FFF7FEFF 		bl	I2C_Peripheral_WriteRegister
 783              	.LVL131:
 320:I2C_Interface.c ****                                          LIS3DH_CTRL_REG4,
 321:I2C_Interface.c ****                                          control_reg_4);
 322:I2C_Interface.c ****     error = I2C_Peripheral_ReadRegister(LIS3DH_DEVICE_ADDRESS,
 784              		.loc 1 322 0
 785 0194 2246     		mov	r2, r4
 786 0196 2321     		movs	r1, #35
 787 0198 1820     		movs	r0, #24
 788 019a FFF7FEFF 		bl	I2C_Peripheral_ReadRegister
 789              	.LVL132:
 323:I2C_Interface.c ****                                         LIS3DH_CTRL_REG4,
 324:I2C_Interface.c ****                                         &control_reg_4);    
 325:I2C_Interface.c ****    
 326:I2C_Interface.c ****     if( error == NO_ERROR ) {
 790              		.loc 1 326 0
 791 019e 50B9     		cbnz	r0, .L46
 327:I2C_Interface.c ****         sprintf(message, "CTRL register 4 value: 0x%02X\r\n", control_reg_4);
 792              		.loc 1 327 0
 793 01a0 2B4C     		ldr	r4, .L53+16
 794 01a2 9DF80420 		ldrb	r2, [sp, #4]	@ zero_extendqisi2
 795 01a6 3549     		ldr	r1, .L53+60
 796 01a8 2046     		mov	r0, r4
 797              	.LVL133:
 798 01aa FFF7FEFF 		bl	sprintf
 799              	.LVL134:
 328:I2C_Interface.c ****         UART_PutString(message);
 800              		.loc 1 328 0
 801 01ae 2046     		mov	r0, r4
 802 01b0 FFF7FEFF 		bl	UART_PutString
 803              	.LVL135:
 804 01b4 02E0     		b	.L47
 805              	.LVL136:
ARM GAS  C:\Users\umber\AppData\Local\Temp\ccCnstrg.s 			page 21


 806              	.L46:
 329:I2C_Interface.c ****     }
 330:I2C_Interface.c ****     
 331:I2C_Interface.c ****     else {
 332:I2C_Interface.c ****         UART_PutString("I2C error while reading LIS3DH_CTRL_REG4\r\n");}    
 807              		.loc 1 332 0
 808 01b6 3248     		ldr	r0, .L53+64
 809              	.LVL137:
 810 01b8 FFF7FEFF 		bl	UART_PutString
 811              	.LVL138:
 812              	.L47:
 333:I2C_Interface.c ****     
 334:I2C_Interface.c ****     //CONTROL REGISTER 5
 335:I2C_Interface.c ****     uint8_t control_reg_5;
 336:I2C_Interface.c ****     control_reg_5 = 0x40;
 813              		.loc 1 336 0
 814 01bc 4022     		movs	r2, #64
 815 01be 02AC     		add	r4, sp, #8
 816 01c0 04F8052D 		strb	r2, [r4, #-5]!
 337:I2C_Interface.c ****     error = I2C_Peripheral_WriteRegister(LIS3DH_DEVICE_ADDRESS,
 817              		.loc 1 337 0
 818 01c4 2421     		movs	r1, #36
 819 01c6 1820     		movs	r0, #24
 820 01c8 FFF7FEFF 		bl	I2C_Peripheral_WriteRegister
 821              	.LVL139:
 338:I2C_Interface.c ****                                          LIS3DH_CTRL_REG5,
 339:I2C_Interface.c ****                                          control_reg_5);
 340:I2C_Interface.c ****     error = I2C_Peripheral_ReadRegister(LIS3DH_DEVICE_ADDRESS,
 822              		.loc 1 340 0
 823 01cc 2246     		mov	r2, r4
 824 01ce 2421     		movs	r1, #36
 825 01d0 1820     		movs	r0, #24
 826 01d2 FFF7FEFF 		bl	I2C_Peripheral_ReadRegister
 827              	.LVL140:
 341:I2C_Interface.c ****                                         LIS3DH_CTRL_REG5,
 342:I2C_Interface.c ****                                         &control_reg_5);    
 343:I2C_Interface.c ****    
 344:I2C_Interface.c ****     if( error == NO_ERROR ) {
 828              		.loc 1 344 0
 829 01d6 50B9     		cbnz	r0, .L48
 345:I2C_Interface.c ****         sprintf(message, "CTRL register 5 value: 0x%02X\r\n", control_reg_5);
 830              		.loc 1 345 0
 831 01d8 1D4C     		ldr	r4, .L53+16
 832 01da 9DF80320 		ldrb	r2, [sp, #3]	@ zero_extendqisi2
 833 01de 2949     		ldr	r1, .L53+68
 834 01e0 2046     		mov	r0, r4
 835              	.LVL141:
 836 01e2 FFF7FEFF 		bl	sprintf
 837              	.LVL142:
 346:I2C_Interface.c ****         UART_PutString(message);
 838              		.loc 1 346 0
 839 01e6 2046     		mov	r0, r4
 840 01e8 FFF7FEFF 		bl	UART_PutString
 841              	.LVL143:
 842 01ec 02E0     		b	.L49
 843              	.LVL144:
 844              	.L48:
ARM GAS  C:\Users\umber\AppData\Local\Temp\ccCnstrg.s 			page 22


 347:I2C_Interface.c ****     }
 348:I2C_Interface.c ****     else {
 349:I2C_Interface.c ****         UART_PutString("I2C error while reading LIS3DH_CTRL_REG5\r\n");}  
 845              		.loc 1 349 0
 846 01ee 2648     		ldr	r0, .L53+72
 847              	.LVL145:
 848 01f0 FFF7FEFF 		bl	UART_PutString
 849              	.LVL146:
 850              	.L49:
 350:I2C_Interface.c ****     
 351:I2C_Interface.c ****     //FIFO
 352:I2C_Interface.c ****     uint8_t fifo_control_reg;
 353:I2C_Interface.c ****     fifo_control_reg &= 0x40;
 851              		.loc 1 353 0
 852 01f4 9DF80220 		ldrb	r2, [sp, #2]	@ zero_extendqisi2
 853 01f8 02F04002 		and	r2, r2, #64
 854 01fc D2B2     		uxtb	r2, r2
 855 01fe 02AC     		add	r4, sp, #8
 856 0200 04F8062D 		strb	r2, [r4, #-6]!
 354:I2C_Interface.c ****     error = I2C_Peripheral_WriteRegister(LIS3DH_DEVICE_ADDRESS,
 857              		.loc 1 354 0
 858 0204 2E21     		movs	r1, #46
 859 0206 1820     		movs	r0, #24
 860 0208 FFF7FEFF 		bl	I2C_Peripheral_WriteRegister
 861              	.LVL147:
 355:I2C_Interface.c ****                                          LIS3DH_FIFO_CTRL_REG,
 356:I2C_Interface.c ****                                          fifo_control_reg);
 357:I2C_Interface.c ****     error = I2C_Peripheral_ReadRegister(LIS3DH_DEVICE_ADDRESS,
 862              		.loc 1 357 0
 863 020c 2246     		mov	r2, r4
 864 020e 2E21     		movs	r1, #46
 865 0210 1820     		movs	r0, #24
 866 0212 FFF7FEFF 		bl	I2C_Peripheral_ReadRegister
 867              	.LVL148:
 358:I2C_Interface.c ****                                         LIS3DH_FIFO_CTRL_REG,
 359:I2C_Interface.c ****                                         &fifo_control_reg);    
 360:I2C_Interface.c ****    
 361:I2C_Interface.c ****     if( error == NO_ERROR ) {
 868              		.loc 1 361 0
 869 0216 50B9     		cbnz	r0, .L50
 362:I2C_Interface.c ****         sprintf(message, "CTRL register FIFO value: 0x%02X\r\n", fifo_control_reg);
 870              		.loc 1 362 0
 871 0218 0D4C     		ldr	r4, .L53+16
 872 021a 9DF80220 		ldrb	r2, [sp, #2]	@ zero_extendqisi2
 873 021e 1B49     		ldr	r1, .L53+76
 874 0220 2046     		mov	r0, r4
 875              	.LVL149:
 876 0222 FFF7FEFF 		bl	sprintf
 877              	.LVL150:
 363:I2C_Interface.c ****         UART_PutString(message);
 878              		.loc 1 363 0
 879 0226 2046     		mov	r0, r4
 880 0228 FFF7FEFF 		bl	UART_PutString
 881              	.LVL151:
 882 022c 02E0     		b	.L51
 883              	.LVL152:
 884              	.L50:
ARM GAS  C:\Users\umber\AppData\Local\Temp\ccCnstrg.s 			page 23


 364:I2C_Interface.c ****     }
 365:I2C_Interface.c ****     else {
 366:I2C_Interface.c ****         UART_PutString("I2C error while reading LIS3DH_CTRL_REG5\r\n");
 885              		.loc 1 366 0
 886 022e 1648     		ldr	r0, .L53+72
 887              	.LVL153:
 888 0230 FFF7FEFF 		bl	UART_PutString
 889              	.LVL154:
 890              	.L51:
 367:I2C_Interface.c ****     }  
 368:I2C_Interface.c **** 
 369:I2C_Interface.c ****     UART_PutString("\r\nConfiguration complete\r\n");
 891              		.loc 1 369 0
 892 0234 1648     		ldr	r0, .L53+80
 893 0236 FFF7FEFF 		bl	UART_PutString
 894              	.LVL155:
 370:I2C_Interface.c **** }
 895              		.loc 1 370 0
 896 023a 03B0     		add	sp, sp, #12
 897              		.cfi_def_cfa_offset 12
 898              		@ sp needed
 899 023c 30BD     		pop	{r4, r5, pc}
 900              	.L54:
 901 023e 00BF     		.align	2
 902              	.L53:
 903 0240 00010000 		.word	.LC6
 904 0244 20010000 		.word	.LC7
 905 0248 34010000 		.word	.LC8
 906 024c 48010000 		.word	.LC9
 907 0250 00000000 		.word	message
 908 0254 50010000 		.word	.LC10
 909 0258 58010000 		.word	.LC11
 910 025c 60010000 		.word	.LC12
 911 0260 64010000 		.word	.LC13
 912 0264 68010000 		.word	.LC14
 913 0268 A4010000 		.word	.LC15
 914 026c D8010000 		.word	.LC16
 915 0270 F8010000 		.word	.LC17
 916 0274 24020000 		.word	.LC18
 917 0278 44020000 		.word	.LC19
 918 027c 70020000 		.word	.LC20
 919 0280 90020000 		.word	.LC21
 920 0284 BC020000 		.word	.LC22
 921 0288 DC020000 		.word	.LC23
 922 028c 08030000 		.word	.LC24
 923 0290 2C030000 		.word	.LC25
 924              		.cfi_endproc
 925              	.LFE72:
 926              		.size	deviceStart, .-deviceStart
 927              		.section	.rodata.str1.4,"aMS",%progbits,1
 928              		.align	2
 929              	.LC0:
 930 0000 0D0A5772 		.ascii	"\015\012Writing new values...\015\012\000"
 930      6974696E 
 930      67206E65 
 930      77207661 
 930      6C756573 
ARM GAS  C:\Users\umber\AppData\Local\Temp\ccCnstrg.s 			page 24


 931 001a 0000     		.space	2
 932              	.LC1:
 933 001c 0D0A5265 		.ascii	"\015\012Register successfully written as: 0x%02X\015"
 933      67697374 
 933      65722073 
 933      75636365 
 933      73736675 
 934 0047 0A00     		.ascii	"\012\000"
 935 0049 000000   		.space	3
 936              	.LC2:
 937 004c 0D0A4572 		.ascii	"\015\012Error occured during I2C comm to set the re"
 937      726F7220 
 937      6F636375 
 937      72656420 
 937      64757269 
 938 0079 67697374 		.ascii	"gister \015\012\000"
 938      6572200D 
 938      0A00
 939 0083 00       		.space	1
 940              	.LC3:
 941 0084 0D0A4572 		.ascii	"\015\012Error occured during I2C comm to set the re"
 941      726F7220 
 941      6F636375 
 941      72656420 
 941      64757269 
 942 00b1 67697374 		.ascii	"gister\015\012\000"
 942      65720D0A 
 942      00
 943 00ba 0000     		.space	2
 944              	.LC4:
 945 00bc 52656769 		.ascii	"Register value: 0x%02X\015\012\000"
 945      73746572 
 945      2076616C 
 945      75653A20 
 945      30782530 
 946 00d5 000000   		.space	3
 947              	.LC5:
 948 00d8 49324320 		.ascii	"I2C error while reading the register\015\012\000"
 948      6572726F 
 948      72207768 
 948      696C6520 
 948      72656164 
 949 00ff 00       		.space	1
 950              	.LC6:
 951 0100 4C495333 		.ascii	"LIS3DH found @ address 0x18\015\012\000"
 951      44482066 
 951      6F756E64 
 951      20402061 
 951      64647265 
 952 011e 0000     		.space	2
 953              	.LC7:
 954 0120 2A2A2A2A 		.ascii	"**************\015\012\000"
 954      2A2A2A2A 
 954      2A2A2A2A 
 954      2A2A0D0A 
 954      00
 955 0131 000000   		.space	3
ARM GAS  C:\Users\umber\AppData\Local\Temp\ccCnstrg.s 			page 25


 956              	.LC8:
 957 0134 2A2A2049 		.ascii	"** I2C Scan **\015\012\000"
 957      32432053 
 957      63616E20 
 957      2A2A0D0A 
 957      00
 958 0145 000000   		.space	3
 959              	.LC9:
 960 0148 0A0A2020 		.ascii	"\012\012   \000"
 960      2000
 961 014e 0000     		.space	2
 962              	.LC10:
 963 0150 25303258 		.ascii	"%02X \000"
 963      2000
 964 0156 0000     		.space	2
 965              	.LC11:
 966 0158 0A253032 		.ascii	"\012%02X \000"
 966      582000
 967 015f 00       		.space	1
 968              	.LC12:
 969 0160 2D2D2000 		.ascii	"-- \000"
 970              	.LC13:
 971 0164 0A0A00   		.ascii	"\012\012\000"
 972 0167 00       		.space	1
 973              	.LC14:
 974 0168 57484F41 		.ascii	"WHOAMI register value: 0x%02X [Expected value: 0x%0"
 974      4D492072 
 974      65676973 
 974      74657220 
 974      76616C75 
 975 019b 32585D0D 		.ascii	"2X]\015\012\000"
 975      0A00
 976 01a1 000000   		.space	3
 977              	.LC15:
 978 01a4 49324320 		.ascii	"I2C error while reading LIS3DH_WHO_AM_I_REG_ADDR\015"
 978      6572726F 
 978      72207768 
 978      696C6520 
 978      72656164 
 979 01d5 0A00     		.ascii	"\012\000"
 980 01d7 00       		.space	1
 981              	.LC16:
 982 01d8 53544154 		.ascii	"STATUS register value: 0x%02X\015\012\000"
 982      55532072 
 982      65676973 
 982      74657220 
 982      76616C75 
 983              	.LC17:
 984 01f8 49324320 		.ascii	"I2C error while reading LIS3DH_STATUS_REG\015\012\000"
 984      6572726F 
 984      72207768 
 984      696C6520 
 984      72656164 
 985              	.LC18:
 986 0224 4354524C 		.ascii	"CTRL register 1 value: 0x%02X\015\012\000"
 986      20726567 
 986      69737465 
ARM GAS  C:\Users\umber\AppData\Local\Temp\ccCnstrg.s 			page 26


 986      72203120 
 986      76616C75 
 987              	.LC19:
 988 0244 49324320 		.ascii	"I2C error while reading LIS3DH_CTRL_REG1\015\012\000"
 988      6572726F 
 988      72207768 
 988      696C6520 
 988      72656164 
 989 026f 00       		.space	1
 990              	.LC20:
 991 0270 4354524C 		.ascii	"CTRL register 4 value: 0x%02X\015\012\000"
 991      20726567 
 991      69737465 
 991      72203420 
 991      76616C75 
 992              	.LC21:
 993 0290 49324320 		.ascii	"I2C error while reading LIS3DH_CTRL_REG4\015\012\000"
 993      6572726F 
 993      72207768 
 993      696C6520 
 993      72656164 
 994 02bb 00       		.space	1
 995              	.LC22:
 996 02bc 4354524C 		.ascii	"CTRL register 5 value: 0x%02X\015\012\000"
 996      20726567 
 996      69737465 
 996      72203520 
 996      76616C75 
 997              	.LC23:
 998 02dc 49324320 		.ascii	"I2C error while reading LIS3DH_CTRL_REG5\015\012\000"
 998      6572726F 
 998      72207768 
 998      696C6520 
 998      72656164 
 999 0307 00       		.space	1
 1000              	.LC24:
 1001 0308 4354524C 		.ascii	"CTRL register FIFO value: 0x%02X\015\012\000"
 1001      20726567 
 1001      69737465 
 1001      72204649 
 1001      464F2076 
 1002 032b 00       		.space	1
 1003              	.LC25:
 1004 032c 0D0A436F 		.ascii	"\015\012Configuration complete\015\012\000"
 1004      6E666967 
 1004      75726174 
 1004      696F6E20 
 1004      636F6D70 
 1005              		.text
 1006              	.Letext0:
 1007              		.file 2 "c:\\program files (x86)\\cypress\\psoc creator\\4.4\\psoc creator\\import\\gnu\\arm\\5.4.
 1008              		.file 3 "c:\\program files (x86)\\cypress\\psoc creator\\4.4\\psoc creator\\import\\gnu\\arm\\5.4.
 1009              		.file 4 "ErrorCodes.h"
 1010              		.file 5 "I2C_Interface.h"
 1011              		.file 6 "Generated_Source\\PSoC5/core_cm3.h"
 1012              		.file 7 "Generated_Source\\PSoC5/I2C_Master.h"
 1013              		.file 8 "Generated_Source\\PSoC5/UART_BT.h"
ARM GAS  C:\Users\umber\AppData\Local\Temp\ccCnstrg.s 			page 27


 1014              		.file 9 "Generated_Source\\PSoC5/UART.h"
 1015              		.file 10 "c:\\program files (x86)\\cypress\\psoc creator\\4.4\\psoc creator\\import\\gnu\\arm\\5.4
 1016              		.file 11 "Generated_Source\\PSoC5/CyLib.h"