ARM GAS  C:\Users\umber\AppData\Local\Temp\ccm0hC1G.s 			page 1


   1              		.syntax unified
   2              		.cpu cortex-m3
   3              		.fpu softvfp
   4              		.eabi_attribute 20, 1
   5              		.eabi_attribute 21, 1
   6              		.eabi_attribute 23, 3
   7              		.eabi_attribute 24, 1
   8              		.eabi_attribute 25, 1
   9              		.eabi_attribute 26, 1
  10              		.eabi_attribute 30, 1
  11              		.eabi_attribute 34, 1
  12              		.eabi_attribute 18, 4
  13              		.thumb
  14              		.syntax unified
  15              		.file	"InterruptRoutines.c"
  16              		.text
  17              	.Ltext0:
  18              		.cfi_sections	.debug_frame
  19              		.section	.text.Custom_ISR_RX,"ax",%progbits
  20              		.align	2
  21              		.global	Custom_ISR_RX
  22              		.thumb
  23              		.thumb_func
  24              		.type	Custom_ISR_RX, %function
  25              	Custom_ISR_RX:
  26              	.LFB64:
  27              		.file 1 "InterruptRoutines.c"
   1:InterruptRoutines.c **** /* ========================================
   2:InterruptRoutines.c ****  *
   3:InterruptRoutines.c ****  * Copyright YOUR COMPANY, THE YEAR
   4:InterruptRoutines.c ****  * All Rights Reserved
   5:InterruptRoutines.c ****  * UNPUBLISHED, LICENSED SOFTWARE.
   6:InterruptRoutines.c ****  *
   7:InterruptRoutines.c ****  * CONFIDENTIAL AND PROPRIETARY INFORMATION
   8:InterruptRoutines.c ****  * WHICH IS THE PROPERTY OF your company.
   9:InterruptRoutines.c ****  *
  10:InterruptRoutines.c ****  * ========================================
  11:InterruptRoutines.c **** */
  12:InterruptRoutines.c **** #include "InterruptRoutines.h" 
  13:InterruptRoutines.c **** #include "project.h"
  14:InterruptRoutines.c **** #include "I2C_Interface.h"
  15:InterruptRoutines.c **** #include "LIS3DH.h"
  16:InterruptRoutines.c **** 
  17:InterruptRoutines.c **** 
  18:InterruptRoutines.c **** uint8_t ch_received;
  19:InterruptRoutines.c **** extern ErrorCode error;
  20:InterruptRoutines.c **** extern char problem;
  21:InterruptRoutines.c **** char ledStatus;
  22:InterruptRoutines.c **** 
  23:InterruptRoutines.c **** CY_ISR(Custom_ISR_RX)
  24:InterruptRoutines.c **** {
  28              		.loc 1 24 0
  29              		.cfi_startproc
  30              		@ args = 0, pretend = 0, frame = 0
  31              		@ frame_needed = 0, uses_anonymous_args = 0
  32 0000 08B5     		push	{r3, lr}
  33              		.cfi_def_cfa_offset 8
ARM GAS  C:\Users\umber\AppData\Local\Temp\ccm0hC1G.s 			page 2


  34              		.cfi_offset 3, -8
  35              		.cfi_offset 14, -4
  25:InterruptRoutines.c ****     ch_received = UART_GetChar(); //receives one byte, if we have a string we have to do it recursi
  36              		.loc 1 25 0
  37 0002 FFF7FEFF 		bl	UART_GetChar
  38              	.LVL0:
  39 0006 0A4B     		ldr	r3, .L7
  40 0008 1870     		strb	r0, [r3]
  26:InterruptRoutines.c ****     
  27:InterruptRoutines.c ****     switch(ch_received)
  41              		.loc 1 27 0
  42 000a 5328     		cmp	r0, #83
  43 000c 0CD0     		beq	.L3
  44 000e 02D8     		bhi	.L4
  45 0010 4128     		cmp	r0, #65
  46 0012 05D0     		beq	.L5
  47 0014 08BD     		pop	{r3, pc}
  48              	.L4:
  49 0016 6128     		cmp	r0, #97
  50 0018 02D0     		beq	.L5
  51 001a 7328     		cmp	r0, #115
  52 001c 04D0     		beq	.L3
  53 001e 08BD     		pop	{r3, pc}
  54              	.L5:
  28:InterruptRoutines.c ****     {
  29:InterruptRoutines.c ****         //starting case (the two notations in columns mens that the code works for both)
  30:InterruptRoutines.c ****         case 'a':
  31:InterruptRoutines.c ****         case 'A':
  32:InterruptRoutines.c ****             status=SAMPLE;
  55              		.loc 1 32 0
  56 0020 0122     		movs	r2, #1
  57 0022 044B     		ldr	r3, .L7+4
  58 0024 1A70     		strb	r2, [r3]
  33:InterruptRoutines.c ****             //Timer_Start();
  34:InterruptRoutines.c ****             //flag_stop = 0;
  35:InterruptRoutines.c ****             break;
  59              		.loc 1 35 0
  60 0026 08BD     		pop	{r3, pc}
  61              	.L3:
  36:InterruptRoutines.c ****         
  37:InterruptRoutines.c ****         case 's':
  38:InterruptRoutines.c ****         case 'S':
  39:InterruptRoutines.c ****             status=HOLD;
  62              		.loc 1 39 0
  63 0028 0222     		movs	r2, #2
  64 002a 024B     		ldr	r3, .L7+4
  65 002c 1A70     		strb	r2, [r3]
  66 002e 08BD     		pop	{r3, pc}
  67              	.L8:
  68              		.align	2
  69              	.L7:
  70 0030 00000000 		.word	ch_received
  71 0034 00000000 		.word	status
  72              		.cfi_endproc
  73              	.LFE64:
  74              		.size	Custom_ISR_RX, .-Custom_ISR_RX
  75              		.section	.text.Custom_ISR_LED,"ax",%progbits
ARM GAS  C:\Users\umber\AppData\Local\Temp\ccm0hC1G.s 			page 3


  76              		.align	2
  77              		.global	Custom_ISR_LED
  78              		.thumb
  79              		.thumb_func
  80              		.type	Custom_ISR_LED, %function
  81              	Custom_ISR_LED:
  82              	.LFB65:
  40:InterruptRoutines.c ****         break;
  41:InterruptRoutines.c ****         //default case
  42:InterruptRoutines.c ****         default:
  43:InterruptRoutines.c ****             break;
  44:InterruptRoutines.c ****     }
  45:InterruptRoutines.c **** }
  46:InterruptRoutines.c **** /*
  47:InterruptRoutines.c **** CY_ISR(Custom_ISR_read)
  48:InterruptRoutines.c **** {
  49:InterruptRoutines.c ****     Timer_read_ReadStatusRegister();
  50:InterruptRoutines.c ****     if(status==SAMPLE && dataReady==0)
  51:InterruptRoutines.c ****     {
  52:InterruptRoutines.c ****         error = I2C_Peripheral_ReadRegister(LIS3DH_DEVICE_ADDRESS,LIS3DH_OUT_X_L,&dataLSB);
  53:InterruptRoutines.c ****         error = I2C_Peripheral_ReadRegister(LIS3DH_DEVICE_ADDRESS,LIS3DH_OUT_X_H,&dataMSB);
  54:InterruptRoutines.c ****         if (error == NO_ERROR) xData = (dataLSB | (dataMSB<<8)) >> 6;
  55:InterruptRoutines.c ****         error = I2C_Peripheral_ReadRegister(LIS3DH_DEVICE_ADDRESS,LIS3DH_OUT_Y_L,&dataLSB);
  56:InterruptRoutines.c ****         error = I2C_Peripheral_ReadRegister(LIS3DH_DEVICE_ADDRESS,LIS3DH_OUT_Y_H,&dataMSB);
  57:InterruptRoutines.c ****         if (error == NO_ERROR) yData = (dataLSB | (dataMSB<<8)) >> 6;
  58:InterruptRoutines.c ****         error = I2C_Peripheral_ReadRegister(LIS3DH_DEVICE_ADDRESS,LIS3DH_OUT_Z_L,&dataLSB);
  59:InterruptRoutines.c ****         error = I2C_Peripheral_ReadRegister(LIS3DH_DEVICE_ADDRESS,LIS3DH_OUT_Z_H,&dataMSB);
  60:InterruptRoutines.c ****         if (error == NO_ERROR) zData = (dataLSB | (dataMSB<<8)) >> 6;
  61:InterruptRoutines.c ****         dataReady=1 ;
  62:InterruptRoutines.c ****     }    
  63:InterruptRoutines.c **** }
  64:InterruptRoutines.c **** */
  65:InterruptRoutines.c **** CY_ISR(Custom_ISR_LED)
  66:InterruptRoutines.c **** {
  83              		.loc 1 66 0
  84              		.cfi_startproc
  85              		@ args = 0, pretend = 0, frame = 0
  86              		@ frame_needed = 0, uses_anonymous_args = 0
  87 0000 08B5     		push	{r3, lr}
  88              		.cfi_def_cfa_offset 8
  89              		.cfi_offset 3, -8
  90              		.cfi_offset 14, -4
  67:InterruptRoutines.c ****     Timer_LED_ReadStatusRegister();
  91              		.loc 1 67 0
  92 0002 FFF7FEFF 		bl	Timer_LED_ReadStatusRegister
  93              	.LVL1:
  68:InterruptRoutines.c ****     if(problem==1)
  94              		.loc 1 68 0
  95 0006 074B     		ldr	r3, .L12
  96 0008 1B78     		ldrb	r3, [r3]	@ zero_extendqisi2
  97 000a 012B     		cmp	r3, #1
  98 000c 08D1     		bne	.L9
  69:InterruptRoutines.c ****     {
  70:InterruptRoutines.c ****         ledStatus = Pin_LED_Read();
  99              		.loc 1 70 0
 100 000e FFF7FEFF 		bl	Pin_LED_Read
 101              	.LVL2:
ARM GAS  C:\Users\umber\AppData\Local\Temp\ccm0hC1G.s 			page 4


  71:InterruptRoutines.c ****         ledStatus = !ledStatus;
 102              		.loc 1 71 0
 103 0012 B0FA80F0 		clz	r0, r0
 104 0016 4009     		lsrs	r0, r0, #5
 105 0018 034B     		ldr	r3, .L12+4
 106 001a 1870     		strb	r0, [r3]
  72:InterruptRoutines.c ****         Pin_LED_Write(ledStatus);
 107              		.loc 1 72 0
 108 001c FFF7FEFF 		bl	Pin_LED_Write
 109              	.LVL3:
 110              	.L9:
 111 0020 08BD     		pop	{r3, pc}
 112              	.L13:
 113 0022 00BF     		.align	2
 114              	.L12:
 115 0024 00000000 		.word	problem
 116 0028 00000000 		.word	ledStatus
 117              		.cfi_endproc
 118              	.LFE65:
 119              		.size	Custom_ISR_LED, .-Custom_ISR_LED
 120              		.comm	ledStatus,1,1
 121              		.comm	ch_received,1,1
 122              		.comm	status,1,1
 123              		.comm	dataReady,1,1
 124              		.text
 125              	.Letext0:
 126              		.file 2 "c:\\program files (x86)\\cypress\\psoc creator\\4.4\\psoc creator\\import\\gnu\\arm\\5.4.
 127              		.file 3 "c:\\program files (x86)\\cypress\\psoc creator\\4.4\\psoc creator\\import\\gnu\\arm\\5.4.
 128              		.file 4 "Generated_Source\\PSoC5/core_cm3.h"
 129              		.file 5 "InterruptRoutines.h"
 130              		.file 6 "Generated_Source\\PSoC5/UART.h"
 131              		.file 7 "Generated_Source\\PSoC5/Timer_LED.h"
 132              		.file 8 "Generated_Source\\PSoC5/Pin_LED.h"