ARM GAS  C:\Users\umber\AppData\Local\Temp\ccqap7Qt.s 			page 1


   1              		.syntax unified
   2              		.cpu cortex-m3
   3              		.fpu softvfp
   4              		.eabi_attribute 20, 1
   5              		.eabi_attribute 21, 1
   6              		.eabi_attribute 23, 3
   7              		.eabi_attribute 24, 1
   8              		.eabi_attribute 25, 1
   9              		.eabi_attribute 26, 1
  10              		.eabi_attribute 30, 1
  11              		.eabi_attribute 34, 1
  12              		.eabi_attribute 18, 4
  13              		.thumb
  14              		.syntax unified
  15              		.file	"main.c"
  16              		.text
  17              	.Ltext0:
  18              		.cfi_sections	.debug_frame
  19              		.section	.text.main,"ax",%progbits
  20              		.align	2
  21              		.global	main
  22              		.thumb
  23              		.thumb_func
  24              		.type	main, %function
  25              	main:
  26              	.LFB64:
  27              		.file 1 "main.c"
   1:main.c        **** /* ========================================
   2:main.c        ****  *
   3:main.c        ****  * Copyright YOUR COMPANY, THE YEAR
   4:main.c        ****  * All Rights Reserved
   5:main.c        ****  * UNPUBLISHED, LICENSED SOFTWARE.
   6:main.c        ****  *
   7:main.c        ****  * CONFIDENTIAL AND PROPRIETARY INFORMATION
   8:main.c        ****  * WHICH IS THE PROPERTY OF your company.
   9:main.c        ****  *
  10:main.c        ****  * ========================================
  11:main.c        **** */
  12:main.c        **** #include <stdio.h>
  13:main.c        **** #include "project.h"
  14:main.c        **** #include "I2C_Interface.h"
  15:main.c        **** #include "LIS3DH.h"
  16:main.c        **** #include "InterruptRoutines.h"
  17:main.c        **** 
  18:main.c        **** // Set this to 1 to send byte data for the Bridge Control Panel
  19:main.c        **** // Otherwise set it to 0 to send temperature data as int16_t
  20:main.c        **** #define USE_BRIDGECONTROLPANEL  0
  21:main.c        **** uint8_t ovrnStatus = 0;
  22:main.c        **** uint8_t emptyBit;
  23:main.c        **** uint8_t reg;
  24:main.c        **** ErrorCode error;
  25:main.c        **** 
  26:main.c        **** uint8_t regSetting;
  27:main.c        **** uint8_t regStatus;
  28:main.c        **** 
  29:main.c        **** char message[50] = {'\0'};
  30:main.c        **** char deviceStatus;
ARM GAS  C:\Users\umber\AppData\Local\Temp\ccqap7Qt.s 			page 2


  31:main.c        **** char oldDeviceStatus=0;
  32:main.c        **** char problem;
  33:main.c        **** 
  34:main.c        **** float xAcc, yAcc, zAcc;
  35:main.c        **** //Data buffer
  36:main.c        **** uint8_t XData[2]; 
  37:main.c        **** uint8_t YData[2]; 
  38:main.c        **** uint8_t ZData[2]; 
  39:main.c        **** //Output  data
  40:main.c        **** int16 outZ;
  41:main.c        **** int16 outY;
  42:main.c        **** int16 outX;
  43:main.c        **** int count;
  44:main.c        **** 
  45:main.c        **** int16 regCount = 192;
  46:main.c        **** uint8_t data[192];
  47:main.c        **** uint8_t fifoFull;
  48:main.c        **** int16 xData[32];
  49:main.c        **** int16 yData[32];
  50:main.c        **** int16 zData[32];
  51:main.c        **** 
  52:main.c        **** uint8_t fifo_status;
  53:main.c        **** 
  54:main.c        **** int main(void)
  55:main.c        **** {
  28              		.loc 1 55 0
  29              		.cfi_startproc
  30              		@ args = 0, pretend = 0, frame = 0
  31              		@ frame_needed = 0, uses_anonymous_args = 0
  32 0000 F8B5     		push	{r3, r4, r5, r6, r7, lr}
  33              		.cfi_def_cfa_offset 24
  34              		.cfi_offset 3, -24
  35              		.cfi_offset 4, -20
  36              		.cfi_offset 5, -16
  37              		.cfi_offset 6, -12
  38              		.cfi_offset 7, -8
  39              		.cfi_offset 14, -4
  56:main.c        ****     CyGlobalIntEnable; /* Enable global interrupts. */
  40              		.loc 1 56 0
  41              		.syntax unified
  42              	@ 56 "main.c" 1
  43 0002 62B6     		CPSIE   i
  44              	@ 0 "" 2
  57:main.c        ****     
  58:main.c        ****     I2C_Peripheral_Start();
  45              		.loc 1 58 0
  46              		.thumb
  47              		.syntax unified
  48 0004 FFF7FEFF 		bl	I2C_Peripheral_Start
  49              	.LVL0:
  59:main.c        ****     UART_BT_Start();
  50              		.loc 1 59 0
  51 0008 FFF7FEFF 		bl	UART_BT_Start
  52              	.LVL1:
  60:main.c        ****     UART_Start();
  53              		.loc 1 60 0
  54 000c FFF7FEFF 		bl	UART_Start
ARM GAS  C:\Users\umber\AppData\Local\Temp\ccqap7Qt.s 			page 3


  55              	.LVL2:
  61:main.c        ****     //Timer_read_Start();
  62:main.c        ****     Timer_LED_Start();
  56              		.loc 1 62 0
  57 0010 FFF7FEFF 		bl	Timer_LED_Start
  58              	.LVL3:
  63:main.c        ****     isr_LED_StartEx(Custom_ISR_LED);
  59              		.loc 1 63 0
  60 0014 3A48     		ldr	r0, .L7
  61 0016 FFF7FEFF 		bl	isr_LED_StartEx
  62              	.LVL4:
  64:main.c        ****     //isr_read_Start();
  65:main.c        ****     isr_RX_StartEx(Custom_ISR_RX);
  63              		.loc 1 65 0
  64 001a 3A48     		ldr	r0, .L7+4
  65 001c FFF7FEFF 		bl	isr_RX_StartEx
  66              	.LVL5:
  66:main.c        ****     
  67:main.c        ****     deviceStart();
  67              		.loc 1 67 0
  68 0020 FFF7FEFF 		bl	deviceStart
  69              	.LVL6:
  70              	.L2:
  68:main.c        ****     
  69:main.c        ****     
  70:main.c        ****    
  71:main.c        **** 
  72:main.c        ****     for(;;)
  73:main.c        ****     {
  74:main.c        ****         /*
  75:main.c        ****         //error = I2C_Peripheral_ReadRegister(LIS3DH_DEVICE_ADDRESS,LIS3DH_FIFO_SRC_REG,&ovrnReady)
  76:main.c        ****         //sprintf(message, "ovrn register value: 0x%02X\r\n", ovrnReady);
  77:main.c        ****         //UART_PutString(message);
  78:main.c        ****         deviceStatus = I2C_Peripheral_IsDeviceConnected(LIS3DH_DEVICE_ADDRESS);
  79:main.c        ****         if(deviceStatus != oldDeviceStatus)
  80:main.c        ****         {
  81:main.c        ****             switch (deviceStatus)
  82:main.c        ****             {
  83:main.c        ****                 case 1:
  84:main.c        ****                 Timer_LED_Stop();
  85:main.c        ****                 problem = 0;
  86:main.c        ****                 Pin_LED_Write(1);
  87:main.c        ****                 break;
  88:main.c        ****                 
  89:main.c        ****                 case 0:
  90:main.c        ****                 Timer_LED_Start();
  91:main.c        ****                 problem = 1;
  92:main.c        ****             }
  93:main.c        ****             
  94:main.c        ****         }
  95:main.c        ****         
  96:main.c        ****         switch (status)
  97:main.c        ****         {
  98:main.c        ****             case SAMPLE:
  99:main.c        **** 
 100:main.c        ****             error= I2C_Peripheral_ReadRegister(LIS3DH_DEVICE_ADDRESS, LIS3DH_CTRL_REG1, &regSetting
 101:main.c        ****             if(regSetting!=0x17)
ARM GAS  C:\Users\umber\AppData\Local\Temp\ccqap7Qt.s 			page 4


 102:main.c        ****             {
 103:main.c        ****                 regSetting= 0x17; //1Hz di prova
 104:main.c        ****                 setReg(regSetting,LIS3DH_CTRL_REG1);
 105:main.c        ****             }
 106:main.c        ****             error=I2C_Peripheral_ReadRegister(LIS3DH_DEVICE_ADDRESS, LIS3DH_FIFO_SRC_REG, &fifo_sta
 107:main.c        ****             if(((fifo_status & 0x40)>>6)==1 && ovrnStatus==0)
 108:main.c        ****             {
 109:main.c        ****                 ovrnStatus=1;
 110:main.c        ****             }
 111:main.c        ****             
 112:main.c        ****             if(ovrnStatus)
 113:main.c        ****             {
 114:main.c        ****                 error=I2C_Peripheral_ReadRegister(LIS3DH_DEVICE_ADDRESS, LIS3DH_FIFO_SRC_REG, &regS
 115:main.c        ****                 
 116:main.c        ****                 //Leggo i dati e li stampo
 117:main.c        ****                 error=I2C_Peripheral_ReadRegister(LIS3DH_DEVICE_ADDRESS, LIS3DH_OUT_X_L, &XData[0])
 118:main.c        ****                 error=I2C_Peripheral_ReadRegister(LIS3DH_DEVICE_ADDRESS, LIS3DH_OUT_X_H, &XData[1])
 119:main.c        ****                 //CyDelay(100); 
 120:main.c        ****                 error=I2C_Peripheral_ReadRegister(LIS3DH_DEVICE_ADDRESS, LIS3DH_OUT_Y_L, &YData[0])
 121:main.c        ****                 error=I2C_Peripheral_ReadRegister(LIS3DH_DEVICE_ADDRESS, LIS3DH_OUT_Y_H, &YData[1])
 122:main.c        ****                 //CyDelay(100); 
 123:main.c        ****                 error=I2C_Peripheral_ReadRegister(LIS3DH_DEVICE_ADDRESS, LIS3DH_OUT_Z_L, &ZData[0])
 124:main.c        ****                 error=I2C_Peripheral_ReadRegister(LIS3DH_DEVICE_ADDRESS, LIS3DH_OUT_Z_H, &ZData[1])
 125:main.c        ****                 if (error==NO_ERROR)
 126:main.c        ****                 {
 127:main.c        ****                     outX= (int16) (XData[0] | (XData[1] <<8)) >> 6;
 128:main.c        ****                     outY= (int16) (YData[0] | (YData[1] <<8)) >> 6;
 129:main.c        ****                     outZ= (int16) (ZData[0] | (ZData[1] <<8)) >> 6; 
 130:main.c        ****                     sprintf(message, "%d, %d, %d \r\n", outX, outY, outZ);  
 131:main.c        ****                     UART_PutString(message);
 132:main.c        ****                     count++; 
 133:main.c        ****                 }
 134:main.c        ****                 
 135:main.c        ****                 if(regStatus == 128)
 136:main.c        ****                 {
 137:main.c        ****                     regSetting=0x00;
 138:main.c        ****                     error = I2C_Peripheral_WriteRegister(LIS3DH_DEVICE_ADDRESS,LIS3DH_FIFO_CTRL_REG
 139:main.c        ****                     regSetting=0x40;
 140:main.c        ****                     error = I2C_Peripheral_WriteRegister(LIS3DH_DEVICE_ADDRESS,LIS3DH_FIFO_CTRL_REG
 141:main.c        ****                     ovrnStatus = 0;
 142:main.c        ****                 }
 143:main.c        ****             }
 144:main.c        ****             
 145:main.c        ****             if(count==180)
 146:main.c        ****             {
 147:main.c        ****                 status=WAIT;
 148:main.c        ****                 count = 0;
 149:main.c        ****             }
 150:main.c        ****             break;
 151:main.c        ****             
 152:main.c        ****             case WAIT:
 153:main.c        ****             ovrnStatus = 0;
 154:main.c        ****             regSetting = 0x00;
 155:main.c        ****             error = I2C_Peripheral_WriteRegister(LIS3DH_DEVICE_ADDRESS,LIS3DH_CTRL_REG1,regSetting)
 156:main.c        ****             count=0;
 157:main.c        ****             regSetting=0x00;
 158:main.c        ****             error = I2C_Peripheral_WriteRegister(LIS3DH_DEVICE_ADDRESS,LIS3DH_FIFO_CTRL_REG,regSett
ARM GAS  C:\Users\umber\AppData\Local\Temp\ccqap7Qt.s 			page 5


 159:main.c        ****             regSetting=0x40;
 160:main.c        ****             error = I2C_Peripheral_WriteRegister(LIS3DH_DEVICE_ADDRESS,LIS3DH_FIFO_CTRL_REG,regSett
 161:main.c        ****             break;
 162:main.c        ****             
 163:main.c        ****         }            
 164:main.c        ****         */
 165:main.c        ****         
 166:main.c        ****         CyDelay(500); //to get stable data
  71              		.loc 1 166 0
  72 0024 4FF4FA70 		mov	r0, #500
  73 0028 FFF7FEFF 		bl	CyDelay
  74              	.LVL7:
 167:main.c        ****         error=I2C_Peripheral_ReadRegister(LIS3DH_DEVICE_ADDRESS, LIS3DH_FIFO_SRC_REG, &fifoFull); 
  75              		.loc 1 167 0
  76 002c 364A     		ldr	r2, .L7+8
  77 002e 2F21     		movs	r1, #47
  78 0030 1820     		movs	r0, #24
  79 0032 FFF7FEFF 		bl	I2C_Peripheral_ReadRegister
  80              	.LVL8:
  81 0036 354B     		ldr	r3, .L7+12
  82 0038 1870     		strb	r0, [r3]
 168:main.c        ****         if(error == NO_ERROR && (fifoFull & 0x40)>>6)
  83              		.loc 1 168 0
  84 003a 0028     		cmp	r0, #0
  85 003c F2D1     		bne	.L2
  86              		.loc 1 168 0 is_stmt 0 discriminator 1
  87 003e 324B     		ldr	r3, .L7+8
  88 0040 1B78     		ldrb	r3, [r3]	@ zero_extendqisi2
  89 0042 13F0400F 		tst	r3, #64
  90 0046 EDD0     		beq	.L2
 169:main.c        ****         {
 170:main.c        ****             I2C_Peripheral_ReadRegisterMulti(LIS3DH_DEVICE_ADDRESS,LIS3DH_OUT_X_L,regCount,data);
  91              		.loc 1 170 0 is_stmt 1
  92 0048 314B     		ldr	r3, .L7+16
  93 004a 324A     		ldr	r2, .L7+20
  94 004c 1278     		ldrb	r2, [r2]	@ zero_extendqisi2
  95 004e 2821     		movs	r1, #40
  96 0050 1820     		movs	r0, #24
  97 0052 FFF7FEFF 		bl	I2C_Peripheral_ReadRegisterMulti
  98              	.LVL9:
  99              	.LBB2:
 171:main.c        ****             for(int i = 0; i<32;i++)
 100              		.loc 1 171 0
 101 0056 0024     		movs	r4, #0
 102 0058 3EE0     		b	.L4
 103              	.LVL10:
 104              	.L5:
 172:main.c        ****             {
 173:main.c        ****                 xData[i] = (int16) (data[i*6] | (data[i*6+1]<<8))>>6;
 105              		.loc 1 173 0 discriminator 3
 106 005a 04EB4402 		add	r2, r4, r4, lsl #1
 107 005e 5300     		lsls	r3, r2, #1
 108 0060 2B49     		ldr	r1, .L7+16
 109 0062 CA5C     		ldrb	r2, [r1, r3]	@ zero_extendqisi2
 110 0064 581C     		adds	r0, r3, #1
 111 0066 085C     		ldrb	r0, [r1, r0]	@ zero_extendqisi2
 112 0068 42EA0022 		orr	r2, r2, r0, lsl #8
ARM GAS  C:\Users\umber\AppData\Local\Temp\ccqap7Qt.s 			page 6


 113 006c 42F38912 		sbfx	r2, r2, #6, #10
 114 0070 2948     		ldr	r0, .L7+24
 115 0072 20F81420 		strh	r2, [r0, r4, lsl #1]	@ movhi
 174:main.c        ****                 yData[i] = (int16) (data[i*6+2] | (data[i*6+3]<<8))>>6;
 116              		.loc 1 174 0 discriminator 3
 117 0076 981C     		adds	r0, r3, #2
 118 0078 085C     		ldrb	r0, [r1, r0]	@ zero_extendqisi2
 119 007a DD1C     		adds	r5, r3, #3
 120 007c 4D5D     		ldrb	r5, [r1, r5]	@ zero_extendqisi2
 121 007e 40EA0520 		orr	r0, r0, r5, lsl #8
 122 0082 264E     		ldr	r6, .L7+28
 123 0084 40F38910 		sbfx	r0, r0, #6, #10
 124 0088 26F81400 		strh	r0, [r6, r4, lsl #1]	@ movhi
 175:main.c        ****                 zData[i] = (int16) (data[i*6+4] | (data[i*6+5]<<8))>>6;
 125              		.loc 1 175 0 discriminator 3
 126 008c 181D     		adds	r0, r3, #4
 127 008e 085C     		ldrb	r0, [r1, r0]	@ zero_extendqisi2
 128 0090 0533     		adds	r3, r3, #5
 129 0092 CB5C     		ldrb	r3, [r1, r3]	@ zero_extendqisi2
 130 0094 40EA0323 		orr	r3, r0, r3, lsl #8
 131 0098 214F     		ldr	r7, .L7+32
 132 009a 43F38913 		sbfx	r3, r3, #6, #10
 133 009e 27F81430 		strh	r3, [r7, r4, lsl #1]	@ movhi
 176:main.c        ****                 sprintf(message, "xData: %d",xData[i]);
 134              		.loc 1 176 0 discriminator 3
 135 00a2 204D     		ldr	r5, .L7+36
 136 00a4 2049     		ldr	r1, .L7+40
 137 00a6 2846     		mov	r0, r5
 138 00a8 FFF7FEFF 		bl	sprintf
 139              	.LVL11:
 177:main.c        ****                 UART_PutString(message);
 140              		.loc 1 177 0 discriminator 3
 141 00ac 2846     		mov	r0, r5
 142 00ae FFF7FEFF 		bl	UART_PutString
 143              	.LVL12:
 178:main.c        ****                 sprintf(message, "yData: %d",yData[i]);
 144              		.loc 1 178 0 discriminator 3
 145 00b2 36F91420 		ldrsh	r2, [r6, r4, lsl #1]
 146 00b6 1D49     		ldr	r1, .L7+44
 147 00b8 2846     		mov	r0, r5
 148 00ba FFF7FEFF 		bl	sprintf
 149              	.LVL13:
 179:main.c        ****                 UART_PutString(message);
 150              		.loc 1 179 0 discriminator 3
 151 00be 2846     		mov	r0, r5
 152 00c0 FFF7FEFF 		bl	UART_PutString
 153              	.LVL14:
 180:main.c        ****                 sprintf(message, "zData: %d",zData[i]);
 154              		.loc 1 180 0 discriminator 3
 155 00c4 37F91420 		ldrsh	r2, [r7, r4, lsl #1]
 156 00c8 1949     		ldr	r1, .L7+48
 157 00ca 2846     		mov	r0, r5
 158 00cc FFF7FEFF 		bl	sprintf
 159              	.LVL15:
 181:main.c        ****                 UART_PutString(message);
 160              		.loc 1 181 0 discriminator 3
 161 00d0 2846     		mov	r0, r5
ARM GAS  C:\Users\umber\AppData\Local\Temp\ccqap7Qt.s 			page 7


 162 00d2 FFF7FEFF 		bl	UART_PutString
 163              	.LVL16:
 171:main.c        ****             {
 164              		.loc 1 171 0 discriminator 3
 165 00d6 0134     		adds	r4, r4, #1
 166              	.LVL17:
 167              	.L4:
 171:main.c        ****             {
 168              		.loc 1 171 0 is_stmt 0 discriminator 1
 169 00d8 1F2C     		cmp	r4, #31
 170 00da BEDD     		ble	.L5
 171              	.LBE2:
 182:main.c        ****             }
 183:main.c        ****             regSetting=0x00;
 172              		.loc 1 183 0 is_stmt 1
 173 00dc 154D     		ldr	r5, .L7+52
 174 00de 0022     		movs	r2, #0
 175 00e0 2A70     		strb	r2, [r5]
 184:main.c        ****             error = I2C_Peripheral_WriteRegister(LIS3DH_DEVICE_ADDRESS,LIS3DH_FIFO_CTRL_REG,regSett
 176              		.loc 1 184 0
 177 00e2 2E21     		movs	r1, #46
 178 00e4 1820     		movs	r0, #24
 179 00e6 FFF7FEFF 		bl	I2C_Peripheral_WriteRegister
 180              	.LVL18:
 181 00ea 084C     		ldr	r4, .L7+12
 182              	.LVL19:
 183 00ec 2070     		strb	r0, [r4]
 185:main.c        ****             regSetting=0x40;
 184              		.loc 1 185 0
 185 00ee 4022     		movs	r2, #64
 186 00f0 2A70     		strb	r2, [r5]
 186:main.c        ****             error = I2C_Peripheral_WriteRegister(LIS3DH_DEVICE_ADDRESS,LIS3DH_FIFO_CTRL_REG,regSett
 187              		.loc 1 186 0
 188 00f2 2E21     		movs	r1, #46
 189 00f4 1820     		movs	r0, #24
 190 00f6 FFF7FEFF 		bl	I2C_Peripheral_WriteRegister
 191              	.LVL20:
 192 00fa 2070     		strb	r0, [r4]
 193 00fc 92E7     		b	.L2
 194              	.L8:
 195 00fe 00BF     		.align	2
 196              	.L7:
 197 0100 00000000 		.word	Custom_ISR_LED
 198 0104 00000000 		.word	Custom_ISR_RX
 199 0108 00000000 		.word	fifoFull
 200 010c 00000000 		.word	error
 201 0110 00000000 		.word	data
 202 0114 00000000 		.word	.LANCHOR0
 203 0118 00000000 		.word	xData
 204 011c 00000000 		.word	yData
 205 0120 00000000 		.word	zData
 206 0124 00000000 		.word	.LANCHOR1
 207 0128 00000000 		.word	.LC0
 208 012c 0C000000 		.word	.LC1
 209 0130 18000000 		.word	.LC2
 210 0134 00000000 		.word	regSetting
 211              		.cfi_endproc
ARM GAS  C:\Users\umber\AppData\Local\Temp\ccqap7Qt.s 			page 8


 212              	.LFE64:
 213              		.size	main, .-main
 214              		.comm	fifo_status,1,1
 215              		.comm	zData,64,4
 216              		.comm	yData,64,4
 217              		.comm	xData,64,4
 218              		.comm	fifoFull,1,1
 219              		.comm	data,192,4
 220              		.global	regCount
 221              		.comm	count,4,4
 222              		.comm	outX,2,2
 223              		.comm	outY,2,2
 224              		.comm	outZ,2,2
 225              		.comm	ZData,2,4
 226              		.comm	YData,2,4
 227              		.comm	XData,2,4
 228              		.comm	zAcc,4,4
 229              		.comm	yAcc,4,4
 230              		.comm	xAcc,4,4
 231              		.comm	problem,1,1
 232              		.global	oldDeviceStatus
 233              		.comm	deviceStatus,1,1
 234              		.global	message
 235              		.comm	regStatus,1,1
 236              		.comm	regSetting,1,1
 237              		.comm	error,1,1
 238              		.comm	reg,1,1
 239              		.comm	emptyBit,1,1
 240              		.global	ovrnStatus
 241              		.comm	status,1,1
 242              		.comm	dataReady,1,1
 243              		.data
 244              		.align	1
 245              		.set	.LANCHOR0,. + 0
 246              		.type	regCount, %object
 247              		.size	regCount, 2
 248              	regCount:
 249 0000 C000     		.short	192
 250              		.section	.rodata.str1.4,"aMS",%progbits,1
 251              		.align	2
 252              	.LC0:
 253 0000 78446174 		.ascii	"xData: %d\000"
 253      613A2025 
 253      6400
 254 000a 0000     		.space	2
 255              	.LC1:
 256 000c 79446174 		.ascii	"yData: %d\000"
 256      613A2025 
 256      6400
 257 0016 0000     		.space	2
 258              	.LC2:
 259 0018 7A446174 		.ascii	"zData: %d\000"
 259      613A2025 
 259      6400
 260              		.bss
 261              		.align	2
 262              		.set	.LANCHOR1,. + 0
ARM GAS  C:\Users\umber\AppData\Local\Temp\ccqap7Qt.s 			page 9


 263              		.type	message, %object
 264              		.size	message, 50
 265              	message:
 266 0000 00000000 		.space	50
 266      00000000 
 266      00000000 
 266      00000000 
 266      00000000 
 267              		.type	oldDeviceStatus, %object
 268              		.size	oldDeviceStatus, 1
 269              	oldDeviceStatus:
 270 0032 00       		.space	1
 271              		.type	ovrnStatus, %object
 272              		.size	ovrnStatus, 1
 273              	ovrnStatus:
 274 0033 00       		.space	1
 275              		.text
 276              	.Letext0:
 277              		.file 2 "c:\\program files (x86)\\cypress\\psoc creator\\4.4\\psoc creator\\import\\gnu\\arm\\5.4.
 278              		.file 3 "c:\\program files (x86)\\cypress\\psoc creator\\4.4\\psoc creator\\import\\gnu\\arm\\5.4.
 279              		.file 4 "Generated_Source\\PSoC5/cytypes.h"
 280              		.file 5 "ErrorCodes.h"
 281              		.file 6 "Generated_Source\\PSoC5/core_cm3.h"
 282              		.file 7 "InterruptRoutines.h"
 283              		.file 8 "c:\\program files (x86)\\cypress\\psoc creator\\4.4\\psoc creator\\import\\gnu\\arm\\5.4.
 284              		.file 9 "Generated_Source\\PSoC5/UART.h"
 285              		.file 10 "I2C_Interface.h"
 286              		.file 11 "Generated_Source\\PSoC5/UART_BT.h"
 287              		.file 12 "Generated_Source\\PSoC5/Timer_LED.h"
 288              		.file 13 "Generated_Source\\PSoC5/isr_LED.h"
 289              		.file 14 "Generated_Source\\PSoC5/isr_RX.h"
 290              		.file 15 "Generated_Source\\PSoC5/CyLib.h"